(dp1
S'id_to_char'
p2
(dp3
I0
V\u4e4b
sI1
V\u65bc
sI2
Va
sI3
V\u4ee5
sI4
V\u4eba
sI5
V\u5e74
sI6
V\u4e0d
sI7
V\u800c
sI8
V\u5176
sI9
V\u5341
sI10
V\u65e5
sI11
V\u6709
sI12
V\u6708
sI13
V\u4e5f
sI14
V\u541b
sI15
V\u5dde
sI16
V\u516c
sI17
V\u5b50
sI18
V\u592b
sI19
V\u5927
sI20
V\u5fb7
sI21
V\u4e8c
sI22
V\u5e9c
sI23
V\u70ba
sI24
V\u4e09
sI25
V\u9577
sI26
V\u7e23
sI27
V\u4e00
sI28
V\u5929
sI29
V\u7121
sI30
V\u66f0
sI31
V\u9298
sI32
V\u79ae
sI33
V\u4e94
sI34
V\u6c0f
sI35
V\u7956
sI36
V\u8ecd
sI37
V\u6545
sI38
V\u98a8
sI39
V\u5510
sI40
V\u56db
sI41
V\u967d
sI42
V\u884c
sI43
V\u4e2d
sI44
V\u5c07
sI45
V\u81ea
sI46
V\u53f2
sI47
V\u5143
sI48
V\u5893
sI49
V\u9053
sI50
V\u5c71
sI51
V\u516d
sI52
V\u4ee4
sI53
V\u570b
sI54
V\u7b2c
sI55
V\u5357
sI56
V\u751f
sI57
V\u6cb3
sI58
V\u7d42
sI59
V\u4e26
sI60
V\u4e0a
sI61
V\u8af1
sI62
V\u516e
sI63
V\u4e8b
sI64
V\u79cb
sI65
V\u8a8c
sI66
V\u5148
sI67
V\u9ad8
sI68
V\u6625
sI69
V\u738b
sI70
V\u4e03
sI71
V\u6587
sI72
V\u5bb6
sI73
V\u91cc
sI74
V\u6e05
sI75
V\u671d
sI76
V\u539f
sI77
V\u9580
sI78
V\u6642
sI79
V\u4ee3
sI80
V\u592a
sI81
V\u54c0
sI82
V\u5eff
sI83
V\u7236
sI84
V\u660e
sI85
V\u4e5d
sI86
V\u5149
sI87
V\u6b72
sI88
V\u66f8
sI89
V\u8c9e
sI90
V\u6b78
sI91
V\u7687
sI92
V\u57ce
sI93
V\u53f8
sI94
V\u516b
sI95
V\u897f
sI96
V\u5b5d
sI97
V\u4f55
sI98
V\u540d
sI99
V\u6c38
sI100
V\u5b89
sI101
V\u6771
sI102
V\u6b21
sI103
V\u4e43
sI104
V\u5f8c
sI105
V\u77f3
sI106
V\u90ce
sI107
V\u90e1
sI108
V\u958b
sI109
V\u5fc3
sI110
V\u5317
sI111
V\u9077
sI112
V\u5e8f
sI113
V\u65b9
sI114
V\u5fd7
sI115
V\u91d1
sI116
V\u5e73
sI117
V\u5f9e
sI118
V\u6210
sI119
V\u672a
sI120
V\u5973
sI121
V\u795e
sI122
V\u6d1b
sI123
V\u5247
sI124
V\u540c
sI125
V\u5373
sI126
V\u6b66
sI127
V\u4ec1
sI128
V\u8a00
sI129
V\u5b57
sI130
V\u96f2
sI131
V\u662f
sI132
V\u9109
sI133
V\u7fa9
sI134
V\u5100
sI135
V\u846c
sI136
V\u6388
sI137
V\u968b
sI138
V\u547d
sI139
V\u4e0b
sI140
V\u8005
sI141
V\u6cc9
sI142
V\u6240
sI143
V\u60b2
sI144
V\u5b98
sI145
V\u5982
sI146
V\u5728
sI147
V\u5343
sI148
V\u53ef
sI149
V\u66fe
sI150
V\u5c09
sI151
V\u82b3
sI152
V\u77e5
sI153
V\u81f3
sI154
V\u90fd
sI155
V\u6d41
sI156
V\u5468
sI157
V\u9060
sI158
V\u9f8d
sI159
V\u7bc0
sI160
V\u5730
sI161
V\u548c
sI162
V\u83ef
sI163
V\u885b
sI164
V\u5c45
sI165
V\u4efb
sI166
V\u58eb
sI167
V\u524d
sI168
V\u6c34
sI169
V\u842c
sI170
V\u5584
sI171
V\u77e3
sI172
V\u99ac
sI173
V\u60df
sI174
V\u547c
sI175
V\u5de6
sI176
V\u7109
sI177
V\u75be
sI178
V\u76f8
sI179
V\u55da
sI180
V\u65af
sI181
V\u9675
sI182
V\u8f09
sI183
V\u53c3
sI184
V\u7389
sI185
V\u4e16
sI186
V\u79c1
sI187
V\u9748
sI188
V\u5167
sI189
V\u4f7f
sI190
V\u54c9
sI191
V\u51fa
sI192
V\u677e
sI193
V\u8072
sI194
V\u5949
sI195
V\u5c1a
sI196
V\u4e4e
sI197
V\u8207
sI198
V\u805e
sI199
V\u80fd
sI200
V\u6176
sI201
V\u9042
sI202
V\u8ce2
sI203
V\u53e4
sI204
V\u5b6b
sI205
V\u53ca
sI206
V\u69ae
sI207
V\u6a02
sI208
V\u627f
sI209
V\u55e3
sI210
V\u5408
sI211
V\u7384
sI212
V\u523a
sI213
V\u7f8e
sI214
V\u6b63
sI215
V\u5b88
sI216
V\u624d
sI217
V\u767d
sI218
V\u65e2
sI219
V\u767e
sI220
V\u65cf
sI221
V\u5e38
sI222
V\u5b97
sI223
V\u6d77
sI224
V\u5e2b
sI225
V\u4eca
sI226
V\u5916
sI227
V\u5fe0
sI228
V\u5f97
sI229
V\u6027
sI230
V\u9f4a
sI231
V\u89aa
sI232
V\u7136
sI233
V\u529f
sI234
V\u901a
sI235
V\u514b
sI236
V\u91cd
sI237
V\u6f22
sI238
V\u61f7
sI239
V\u82f1
sI240
V\u9304
sI241
V\u6714
sI242
V\u4eac
sI243
V\u671b
sI244
V\u6b64
sI245
V\u5146
sI246
V\u5e7d
sI247
V\u9099
sI248
V\u5c01
sI249
V\u5be6
sI250
V\u7b49
sI251
V\u53f3
sI252
V\u6df1
sI253
V\u4f8d
sI254
V\u51a0
sI255
V\u5ddd
sI256
V\u656c
sI257
V\u862d
sI258
V\u8eab
sI259
V\u56e0
sI260
V\u8a5e
sI261
V\u666f
sI262
V\u9752
sI263
V\u5df2
sI264
V\u5b64
sI265
V\u671f
sI266
V\u826f
sI267
V\u8c37
sI268
V\u696d
sI269
V\u674e
sI270
V\u4e3b
sI271
V\u6797
sI272
V\u6211
sI273
V\u5b78
sI274
V\u8b02
sI275
V\u8c48
sI276
V\u8449
sI277
V\u82e5
sI278
V\u4e1e
sI279
V\u50b3
sI280
V\u75db
sI281
V\u7528
sI282
V\u6c23
sI283
V\u96e3
sI284
V\u79c0
sI285
V\u5316
sI286
V\u90e8
sI287
V\u5ba4
sI288
V\u601d
sI289
V\u7d55
sI290
V\u7406
sI291
V\u8af8
sI292
V\u8302
sI293
V\u7acb
sI294
V\u7d93
sI295
V\u7a7a
sI296
V\u53f0
sI297
V\u591c
sI298
V\u7a31
sI299
V\u58fd
sI300
V\u5352
sI301
V\u5fa1
sI302
V\u5e7c
sI303
V\u5206
sI304
V\u517c
sI305
V\u67f1
sI306
V\u898b
sI307
V\u98db
sI308
V\u5e1d
sI309
V\u5bf6
sI310
V\u7d00
sI311
V\u4f86
sI312
V\u653f
sI313
V\u8a13
sI314
V\u7d20
sI315
V\u81e8
sI316
V\u5165
sI317
V\u6dd1
sI318
V\u4f5c
sI319
V\u584b
sI320
V\u6a39
sI321
V\u5fc5
sI322
V\u9ec3
sI323
V\u59cb
sI324
V\u5944
sI325
V\u8457
sI326
V\u7533
sI327
V\u96b4
sI328
V\u975e
sI329
V\u4faf
sI330
V\u54b8
sI331
V\u60c5
sI332
V\u65e9
sI333
V\u5f35
sI334
V\u66f9
sI335
V\u7559
sI336
V\u7686
sI337
V\u53c8
sI338
V\u6563
sI339
V\u9091
sI340
V\u907a
sI341
V\u5ead
sI342
V\u7576
sI343
V\u7269
sI344
V\u8208
sI345
V\u6ce3
sI346
V\u8332
sI347
V\u4ed5
sI348
V\u865f
sI349
V\u4eab
sI350
V\u5ea6
sI351
V\u5099
sI352
V\u797f
sI353
V\u901d
sI354
V\u660c
sI355
V\u8868
sI356
V\u5d07
sI357
V\u8def
sI358
V\u55aa
sI359
V\u4f4d
sI360
V\u5bb9
sI361
V\u6bcd
sI362
V\u6649
sI363
V\u4fc4
sI364
V\u662d
sI365
V\u52a0
sI366
V\u8003
sI367
V\u5fa9
sI368
V\u8077
sI369
V\u96d6
sI370
V\u8655
sI371
V\u6c89
sI372
V\u89c0
sI373
V\u964d
sI374
V\u5175
sI375
V\u518a
sI376
V\u5c11
sI377
V\u606d
sI378
V\u521d
sI379
V\u6b77
sI380
V\u9b4f
sI381
V\u9806
sI382
V\u96c5
sI383
V\u63da
sI384
V\u76f4
sI385
V\u5217
sI386
V\u5f18
sI387
V\u5fbd
sI388
V\u6cd5
sI389
V\u6216
sI390
V\u7a4d
sI391
V\u8209
sI392
V\u5bae
sI393
V\u5ba3
sI394
V\u83ab
sI395
V\u76e3
sI396
V\u9032
sI397
V\u4fe1
sI398
V\u64b0
sI399
V\u8cc7
sI400
V\u5a66
sI401
V\u672c
sI402
V\u53bb
sI403
V\u4e18
sI404
V\u8b8a
sI405
V\u798f
sI406
V\u843d
sI407
V\u8cea
sI408
V\u6236
sI409
V\u65b0
sI410
V\u7530
sI411
V\u7565
sI412
V\u76db
sI413
V\u5b58
sI414
V\u6e90
sI415
V\u9cf3
sI416
V\u8303
sI417
V\u53cb
sI418
V\u8d08
sI419
V\u52d2
sI420
V\u537f
sI421
V\u7230
sI422
V\u9732
sI423
V\u6069
sI424
V\u6975
sI425
V\u591a
sI426
V\u6050
sI427
V\u986f
sI428
V\u6c5f
sI429
V\u6e38
sI430
V\u5716
sI431
V\u7a86
sI432
V\u76e1
sI433
V\u971c
sI434
V\u9670
sI435
V\u5a01
sI436
V\u79fb
sI437
V\u7ae0
sI438
V\u6613
sI439
V\u694a
sI440
V\u4ea1
sI441
V\u9673
sI442
V\u6eab
sI443
V\u7a1f
sI444
V\u4fee
sI445
V\u5377
sI446
V\u8b70
sI447
V\u611f
sI448
V\u7954
sI449
V\u7d2b
sI450
V\u8d77
sI451
V\u5f80
sI452
V\u7537
sI453
V\u5c6c
sI454
V\u907d
sI455
V\u5668
sI456
V\u5ffd
sI457
V\u4ea6
sI458
V\u5df1
sI459
V\u70c8
sI460
V\u9b42
sI461
V\u7de8
sI462
V\u6881
sI463
V\u8b7d
sI464
V\u7570
sI465
V\u5609
sI466
V\u8fad
sI467
V\u8056
sI468
V\u898f
sI469
V\u67d4
sI470
V\u535a
sI471
V\u5ef6
sI472
V\u543e
sI473
V\u61c9
sI474
V\u5236
sI475
V\u6b0a
sI476
V\u8cb4
sI477
V\u555f
sI478
V\u8840
sI479
V\u5fb5
sI480
V\u58b3
sI481
V\u5782
sI482
V\u60e0
sI483
V\u7434
sI484
V\u52f3
sI485
V\u9a0e
sI486
V\u5f0f
sI487
V\u5f7c
sI488
V\u5b9c
sI489
V\u5f1f
sI490
V\u96c4
sI491
V\u5eb6
sI492
V\u84cb
sI493
V\u5225
sI494
V\u59d3
sI495
V\u661f
sI496
V\u6a19
sI497
V\u8aa0
sI498
V\u8cd3
sI499
V\u9054
sI500
V\u9593
sI501
V\u990a
sI502
V\u50b7
sI503
V\u84bc
sI504
V\u8f49
sI505
V\u9918
sI506
V\u9058
sI507
V\u7d2f
sI508
V\u8085
sI509
V\u4fd7
sI510
V\u767b
sI511
V\u8b58
sI512
V\u5802
sI513
V\u5f92
sI514
V\u55df
sI515
V\u56fa
sI516
V\u6559
sI517
V\u6821
sI518
V\u767c
sI519
V\u7368
sI520
V\u7532
sI521
V\u9069
sI522
V\u5b9a
sI523
V\u820a
sI524
V\u6467
sI525
V\u6539
sI526
V\u6148
sI527
V\u7cbe
sI528
V\u85cf
sI529
V\u8972
sI530
V\u8eca
sI531
V\u633a
sI532
V\u6fdf
sI533
V\u528d
sI534
V\u4f2f
sI535
V\u4e39
sI536
V\u7e7c
sI537
V\u8d99
sI538
V\u4f59
sI539
V\u7337
sI540
V\u8db3
sI541
V\u5be7
sI542
V\u5efa
sI543
V\u5f59
sI544
V\u61ff
sI545
V\u96a8
sI546
V\u51dd
sI547
V\u54f2
sI548
V\u7cb5
sI549
V\u5be2
sI550
V\u4e45
sI551
V\u535c
sI552
V\u5b85
sI553
V\u8f14
sI554
V\u5bd2
sI555
V\u571f
sI556
V\u5ee3
sI557
V\u6614
sI558
V\u771f
sI559
V\u903e
sI560
V\u611b
sI561
V\u8863
sI562
V\u4ef2
sI563
V\u5bfa
sI564
V\u7aae
sI565
V\u8ffd
sI566
V\u5b63
sI567
V\u5c0b
sI568
V\u8ed2
sI569
V\u81e3
sI570
V\u8cdc
sI571
V\u7531
sI572
V\u62dc
sI573
V\u632f
sI574
V\u8de1
sI575
V\u9592
sI576
V\u98df
sI577
V\u6751
sI578
V\u8b1d
sI579
V\u670d
sI580
V\u904b
sI581
V\u79e6
sI582
V\u5f70
sI583
V\u6842
sI584
V\u63a8
sI585
V\u52e4
sI586
V\u5169
sI587
V\u554f
sI588
V\u4f50
sI589
V\u9023
sI590
V\u91ce
sI591
V\u5947
sI592
V\u6155
sI593
V\u6731
sI594
V\u7e3d
sI595
V\u679d
sI596
V\u904e
sI597
V\u912d
sI598
V\u6703
sI599
V\u9149
sI600
V\u552f
sI601
V\u5145
sI602
V\u4ea4
sI603
V\u4e01
sI604
V\u9b5a
sI605
V\u597d
sI606
V\u89e3
sI607
V\u5875
sI608
V\u8fb0
sI609
V\u52d5
sI610
V\u6baf
sI611
V\u9996
sI612
V\u5919
sI613
V\u5c0f
sI614
V\u64ab
sI615
V\u99d5
sI616
V\u73e0
sI617
V\u4ef0
sI618
V\u590f
sI619
V\u6bd4
sI620
V\u8a54
sI621
V\u5180
sI622
V\u5f62
sI623
V\u520a
sI624
V\u59ff
sI625
V\u5bc2
sI626
V\u6b4e
sI627
V\u7336
sI628
V\u95a8
sI629
V\u9686
sI630
V\u8272
sI631
V\u620e
sI632
V\u8a18
sI633
V\u4f11
sI634
V\u6eff
sI635
V\u820d
sI636
V\u540f
sI637
V\u97f3
sI638
V\u5289
sI639
V\u6b4c
sI640
V\u51a5
sI641
V\u53d7
sI642
V\u7b56
sI643
V\u8acb
sI644
V\u9f61
sI645
V\u5141
sI646
V\u6301
sI647
V\u7dd2
sI648
V\u5409
sI649
V\u5f4c
sI650
V\u723e
sI651
V\u7d50
sI652
V\u4f9d
sI653
V\u9cf4
sI654
V\u5178
sI655
V\u5229
sI656
V\u542b
sI657
V\u58ec
sI658
V\u6b7b
sI659
V\u7b26
sI660
V\u679c
sI661
V\u6b7f
sI662
V\u8a69
sI663
V\u8b00
sI664
V\u5f69
sI665
V\u4ed9
sI666
V\u4fdd
sI667
V\u9d3b
sI668
V\u57fa
sI669
V\u5c65
sI670
V\u6298
sI671
V\u8001
sI672
V\u6f64
sI673
V\u93e1
sI674
V\u5e9a
sI675
V\u79e9
sI676
V\u80e4
sI677
V\u8a95
sI678
V\u9038
sI679
V\u63a9
sI680
V\u8f1d
sI681
V\u59bb
sI682
V\u53a5
sI683
V\u8abf
sI684
V\u6ec5
sI685
V\u673d
sI686
V\u99b3
sI687
V\u5bf5
sI688
V\u7c21
sI689
V\u6ce2
sI690
V\u64cd
sI691
V\u7763
sI692
V\u865b
sI693
V\u9664
sI694
V\u5112
sI695
V\u5144
sI696
V\u5617
sI697
V\u8a66
sI698
V\u9f9c
sI699
V\u9761
sI700
V\u539a
sI701
V\u95d5
sI702
V\u5168
sI703
V\u667a
sI704
V\u856d
sI705
V\u9ad4
sI706
V\u52dd
sI707
V\u93ae
sI708
V\u4e14
sI709
V\u4e58
sI710
V\u8352
sI711
V\u9a5a
sI712
V\u606f
sI713
V\u654f
sI714
V\u7c3f
sI715
V\u58e4
sI716
V\u5cb3
sI717
V\u5a49
sI718
V\u695a
sI719
V\u5171
sI720
V\u7279
sI721
V\u96cd
sI722
V\u81f4
sI723
V\u821f
sI724
V\u5433
sI725
V\u5712
sI726
V\u5ec9
sI727
V\u8f9b
sI728
V\u932b
sI729
V\u5999
sI730
V\u64e2
sI731
V\u5fae
sI732
V\u65cc
sI733
V\u9130
sI734
V\u5f31
sI735
V\u6a5f
sI736
V\u52d9
sI737
V\u64ad
sI738
V\u6cd0
sI739
V\u8ff0
sI740
V\u57f7
sI741
V\u5d14
sI742
V\u6750
sI743
V\u9db4
sI744
V\u6578
sI745
V\u5195
sI746
V\u7387
sI747
V\u6b62
sI748
V\u88d4
sI749
V\u9078
sI750
V\u6620
sI751
V\u7aef
sI752
V\u59d4
sI753
V\u85dd
sI754
V\u5bc5
sI755
V\u7a46
sI756
V\u8d8a
sI757
V\u56b4
sI758
V\u5bdf
sI759
V\u9050
sI760
V\u518d
sI761
V\u5b87
sI762
V\u8a31
sI763
V\u9084
sI764
V\u7fa4
sI765
V\u9f0e
sI766
V\u610f
sI767
V\u614e
sI768
V\u975c
sI769
V\u96d9
sI770
V\u52de
sI771
V\u7dbf
sI772
V\u904a
sI773
V\u67cf
sI774
V\u6c42
sI775
V\u6d6e
sI776
V\u758f
sI777
V\u5f08
sI778
V\u6fa4
sI779
V\u4f73
sI780
V\u5931
sI781
V\u9a30
sI782
V\u6728
sI783
V\u69cb
sI784
V\u96b1
sI785
V\u6aa2
sI786
V\u7f54
sI787
V\u90a6
sI788
V\u91cf
sI789
V\u523b
sI790
V\u529b
sI791
V\u6851
sI792
V\u6d2a
sI793
V\u5348
sI794
V\u5e7e
sI795
V\u6276
sI796
V\u53d4
sI797
V\u7fbd
sI798
V\u512a
sI799
V\u8d0a
sI800
V\u76ca
sI801
V\u85a8
sI802
V\u7701
sI803
V\u9928
sI804
V\u5f99
sI805
V\u6bbf
sI806
V\u5207
sI807
V\u9818
sI808
V\u745f
sI809
V\u6bc0
sI810
V\u73ed
sI811
V\u4ff1
sI812
V\u6243
sI813
V\u71df
sI814
V\u79d8
sI815
V\u7ffc
sI816
V\u8349
sI817
V\u8b77
sI818
V\u5c31
sI819
V\u6dd2
sI820
V\u76e7
sI821
V\u96c6
sI822
V\u7678
sI823
V\u7e3e
sI824
V\u965d
sI825
V\u589e
sI826
V\u8b19
sI827
V\u9280
sI828
V\u77bb
sI829
V\u9e1e
sI830
V\u4e59
sI831
V\u54e1
sI832
V\u5cfb
sI833
V\u8910
sI834
V\u502b
sI835
V\u6d3e
sI836
V\u7159
sI837
V\u7c2a
sI838
V\u6606
sI839
V\u7a74
sI840
V\u834a
sI841
V\u8cc8
sI842
V\u773e
sI843
V\u65cb
sI844
V\u8c50
sI845
V\u8ca0
sI846
V\u984f
sI847
V\u9867
sI848
V\u6689
sI849
V\u56de
sI850
V\u615f
sI851
V\u7e8f
sI852
V\u59fb
sI853
V\u574a
sI854
V\u5de5
sI855
V\u6566
sI856
V\u6bcf
sI857
V\u70cf
sI858
V\u80c4
sI859
V\u860a
sI860
V\u8a73
sI861
V\u594f
sI862
V\u6562
sI863
V\u7ba1
sI864
V\u4e7e
sI865
V\u7167
sI866
V\u8cde
sI867
V\u9b6f
sI868
V\u5345
sI869
V\u6668
sI870
V\u6b65
sI871
V\u6f54
sI872
V\u7fca
sI873
V\u589c
sI874
V\u5f71
sI875
V\u6bc5
sI876
V\u8fd1
sI877
V\u7562
sI878
V\u7fd2
sI879
V\u7af9
sI880
V\u865e
sI881
V\u5c0a
sI882
V\u798d
sI883
V\u9047
sI884
V\u937e
sI885
V\u5937
sI886
V\u65b7
sI887
V\u6c96
sI888
V\u4f0a
sI889
V\u9055
sI890
V\u60a0
sI891
V\u6717
sI892
V\u806f
sI893
V\u82b1
sI894
V\u96e2
sI895
V\u536f
sI896
V\u5b5f
sI897
V\u5f6d
sI898
V\u6182
sI899
V\u7965
sI900
V\u9059
sI901
V\u6d0e
sI902
V\u5ff5
sI903
V\u6548
sI904
V\u5bbf
sI905
V\u5e72
sI906
V\u66f4
sI907
V\u888b
sI908
V\u6b5f
sI909
V\u71d5
sI910
V\u7dad
sI911
V\u82ac
sI912
V\u85fb
sI913
V\u5f85
sI914
V\u968e
sI915
V\u6046
sI916
V\u68f2
sI917
V\u8d85
sI918
V\u54ed
sI919
V\u675c
sI920
V\u9aa8
sI921
V\u7cfb
sI922
V\u838a
sI923
V\u91cb
sI924
V\u526f
sI925
V\u6d3d
sI926
V\u7a4e
sI927
V\u59d1
sI928
V\u6068
sI929
V\u61f8
sI930
V\u6c5d
sI931
V\u9075
sI932
V\u4ecd
sI933
V\u63a5
sI934
V\u90ed
sI935
V\u5c55
sI936
V\u5fd8
sI937
V\u7ff0
sI938
V\u5e78
sI939
V\u620a
sI940
V\u97cb
sI941
V\u9ee8
sI942
V\u6c92
sI943
V\u7b04
sI944
V\u8944
sI945
V\u5915
sI946
V\u5f15
sI947
V\u7c4d
sI948
V\u90ca
sI949
V\u6538
sI950
V\u689d
sI951
V\u58d1
sI952
V\u9ce5
sI953
V\u544a
sI954
V\u5bb0
sI955
V\u8b93
sI956
V\u5eb7
sI957
V\u67f3
sI958
V\u7940
sI959
V\u8ab0
sI960
V\u929c
sI961
V\u88dc
sI962
V\u8fb2
sI963
V\u95b1
sI964
V\u5c0d
sI965
V\u8667
sI966
V\u50d5
sI967
V\u5177
sI968
V\u5085
sI969
V\u5109
sI970
V\u5922
sI971
V\u5bc4
sI972
V\u82e6
sI973
V\u6b32
sI974
V\u80b2
sI975
V\u88ab
sI976
V\u8ae7
sI977
V\u95dc
sI978
V\u97d3
sI979
V\u81ba
sI980
V\u85e5
sI981
V\u8ad6
sI982
V\u82d7
sI983
V\u74ca
sI984
V\u8c61
sI985
V\u532a
sI986
V\u9b31
sI987
V\u52c7
sI988
V\u5c04
sI989
V\u66f2
sI990
V\u5b8b
sI991
V\u737b
sI992
V\u7f77
sI993
V\u8000
sI994
V\u6368
sI995
V\u6c60
sI996
V\u8853
sI997
V\u5347
sI998
V\u7e31
sI999
V\u8f15
sI1000
V\u51f6
sI1001
V\u5805
sI1002
V\u5d29
sI1003
V\u748b
sI1004
V\u8cab
sI1005
V\u5f26
sI1006
V\u6f5b
sI1007
V\u5ba2
sI1008
V\u616e
sI1009
V\u8ca2
sI1010
V\u5b2a
sI1011
V\u5df3
sI1012
V\u64ca
sI1013
V\u50be
sI1014
V\u6dee
sI1015
V\u80e1
sI1016
V\u65bd
sI1017
V\u7bc4
sI1018
V\u9020
sI1019
V\u4fca
sI1020
V\u53d6
sI1021
V\u62b1
sI1022
V\u64c5
sI1023
V\u670b
sI1024
V\u7b46
sI1025
V\u7fe0
sI1026
V\u9858
sI1027
V\u9999
sI1028
V\u95ad
sI1029
V\u7235
sI1030
V\u76ee
sI1031
V\u8a60
sI1032
V\u9152
sI1033
V\u5009
sI1034
V\u5b8f
sI1035
V\u6dda
sI1036
V\u7aed
sI1037
V\u7b6e
sI1038
V\u8996
sI1039
V\u9452
sI1040
V\u5c48
sI1041
V\u7766
sI1042
V\u8499
sI1043
V\u9000
sI1044
V\u942b
sI1045
V\u9678
sI1046
V\u5047
sI1047
V\u5091
sI1048
V\u5dd6
sI1049
V\u97ff
sI1050
V\u5951
sI1051
V\u5ba6
sI1052
V\u6158
sI1053
V\u6a6b
sI1054
V\u7e41
sI1055
V\u8861
sI1056
V\u5224
sI1057
V\u58ef
sI1058
V\u5f8b
sI1059
V\u6f38
sI1060
V\u6f84
sI1061
V\u7e93
sI1062
V\u623f
sI1063
V\u90c1
sI1064
V\u95c8
sI1065
V\u966a
sI1066
V\u4f0f
sI1067
V\u5211
sI1068
V\u585e
sI1069
V\u5e37
sI1070
V\u6cf0
sI1071
V\u5bc6
sI1072
V\u5cf0
sI1073
V\u6b3d
sI1074
V\u6b8a
sI1075
V\u7d39
sI1076
V\u878d
sI1077
V\u9676
sI1078
V\u97dc
sI1079
V\u539d
sI1080
V\u4e91
sI1081
V\u8f3f
sI1082
V\u5c90
sI1083
V\u7d44
sI1084
V\u8070
sI1085
V\u57df
sI1086
V\u6dbc
sI1087
V\u723d
sI1088
V\u7d14
sI1089
V\u829d
sI1090
V\u5152
sI1091
V\u51e1
sI1092
V\u7adf
sI1093
V\u5055
sI1094
V\u51b0
sI1095
V\u624b
sI1096
V\u6558
sI1097
V\u7981
sI1098
V\u9001
sI1099
V\u9081
sI1100
V\u5f37
sI1101
V\u6500
sI1102
V\u795a
sI1103
V\u5f90
sI1104
V\u65e8
sI1105
V\u8d6b
sI1106
V\u8e10
sI1107
V\u9589
sI1108
V\u4e82
sI1109
V\u66ae
sI1110
V\u8f9f
sI1111
V\u5b54
sI1112
V\u660a
sI1113
V\u6666
sI1114
V\u6d95
sI1115
V\u8584
sI1116
V\u6307
sI1117
V\u752b
sI1118
V\u7ae5
sI1119
V\u8da8
sI1120
V\u9a65
sI1121
V\u4ea5
sI1122
V\u68c4
sI1123
V\u8eac
sI1124
V\u965f
sI1125
V\u64c7
sI1126
V\u6df3
sI1127
V\u79aa
sI1128
V\u9727
sI1129
V\u5831
sI1130
V\u60bc
sI1131
V\u61fc
sI1132
V\u621a
sI1133
V\u6ece
sI1134
V\u7f72
sI1135
V\u5f65
sI1136
V\u73cd
sI1137
V\u7a78
sI1138
V\u9418
sI1139
V\u985e
sI1140
V\u4e11
sI1141
V\u4ead
sI1142
V\u592d
sI1143
V\u7949
sI1144
V\u9e9f
sI1145
V\u5bec
sI1146
V\u609f
sI1147
V\u902e
sI1148
V\u5c08
sI1149
V\u6555
sI1150
V\u68d8
sI1151
V\u76c8
sI1152
V\u807d
sI1153
V\u88d5
sI1154
V\u66c6
sI1155
V\u7372
sI1156
V\u51ac
sI1157
V\u74b0
sI1158
V\u8ce6
sI1159
V\u9e97
sI1160
V\u5e0c
sI1161
V\u751a
sI1162
V\u96ea
sI1163
V\u832b
sI1164
V\u725b
sI1165
V\u7267
sI1166
V\u8ecc
sI1167
V\u9326
sI1168
V\u5e03
sI1169
V\u6bb7
sI1170
V\u885d
sI1171
V\u85a4
sI1172
V\u971e
sI1173
V\u6101
sI1174
V\u7317
sI1175
V\u79c9
sI1176
V\u5371
sI1177
V\u6893
sI1178
V\u4eae
sI1179
V\u505c
sI1180
V\u6021
sI1181
V\u638c
sI1182
V\u6b61
sI1183
V\u71ed
sI1184
V\u87ec
sI1185
V\u8faf
sI1186
V\u9b44
sI1187
V\u5750
sI1188
V\u6d25
sI1189
V\u7f6e
sI1190
V\u5747
sI1191
V\u5b70
sI1192
V\u5eb8
sI1193
V\u6756
sI1194
V\u9803
sI1195
V\u4e8e
sI1196
V\u4fbf
sI1197
V\u59dc
sI1198
V\u5a18
sI1199
V\u5a36
sI1200
V\u653e
sI1201
V\u665d
sI1202
V\u8859
sI1203
V\u8ac7
sI1204
V\u8b39
sI1205
V\u9014
sI1206
V\u96d5
sI1207
V\u5857
sI1208
V\u660f
sI1209
V\u6dea
sI1210
V\u60f3
sI1211
V\u6b9e
sI1212
V\u9088
sI1213
V\u5bcc
sI1214
V\u5de2
sI1215
V\u984c
sI1216
V\u540a
sI1217
V\u65c5
sI1218
V\u796d
sI1219
V\u908a
sI1220
V\u4ea8
sI1221
V\u5411
sI1222
V\u5c40
sI1223
V\u8205
sI1224
V\u8339
sI1225
V\u4ed6
sI1226
V\u5321
sI1227
V\u58a8
sI1228
V\u7dac
sI1229
V\u95a3
sI1230
V\u96e8
sI1231
V\u97fb
sI1232
V\u5351
sI1233
V\u62fe
sI1234
V\u66c9
sI1235
V\u7d73
sI1236
V\u85e9
sI1237
V\u8607
sI1238
V\u8f2a
sI1239
V\u54c1
sI1240
V\u6b98
sI1241
V\u6bb2
sI1242
V\u7430
sI1243
V\u77ed
sI1244
V\u4ffe
sI1245
V\u5c6f
sI1246
V\u5f13
sI1247
V\u608c
sI1248
V\u6577
sI1249
V\u6c99
sI1250
V\u84b2
sI1251
V\u895f
sI1252
V\u60dc
sI1253
V\u6843
sI1254
V\u7f85
sI1255
V\u534a
sI1256
V\u57cb
sI1257
V\u5c24
sI1258
V\u5d17
sI1259
V\u5de8
sI1260
V\u6085
sI1261
V\u66dc
sI1262
V\u8292
sI1263
V\u8adc
sI1264
V\u8cbd
sI1265
V\u9704
sI1266
V\u559c
sI1267
V\u5c62
sI1268
V\u672b
sI1269
V\u914d
sI1270
V\u6627
sI1271
V\u7464
sI1272
V\u8eeb
sI1273
V\u5353
sI1274
V\u8033
sI1275
V\u8700
sI1276
V\u5ef7
sI1277
V\u62d4
sI1278
V\u7cb9
sI1279
V\u9022
sI1280
V\u6d66
sI1281
V\u79d1
sI1282
V\u83ca
sI1283
V\u8fd4
sI1284
V\u96c1
sI1285
V\u5410
sI1286
V\u5954
sI1287
V\u8b66
sI1288
V\u5bc7
sI1289
V\u74a7
sI1290
V\u7709
sI1291
V\u8aa1
sI1292
V\u958f
sI1293
V\u5854
sI1294
V\u5883
sI1295
V\u5dba
sI1296
V\u6208
sI1297
V\u6d1e
sI1298
V\u7d31
sI1299
V\u818f
sI1300
V\u96a7
sI1301
V\u500f
sI1302
V\u7d66
sI1303
V\u82d1
sI1304
V\u84bf
sI1305
V\u9699
sI1306
V\u5043
sI1307
V\u61b2
sI1308
V\u7bc6
sI1309
V\u652f
sI1310
V\u707d
sI1311
V\u7dcb
sI1312
V\u80cc
sI1313
V\u969b
sI1314
V\u4f46
sI1315
V\u5076
sI1316
V\u5c39
sI1317
V\u92b7
sI1318
V\u4f9b
sI1319
V\u6295
sI1320
V\u703e
sI1321
V\u8271
sI1322
V\u88f4
sI1323
V\u4f84
sI1324
V\u4fc3
sI1325
V\u5f81
sI1326
V\u7a80
sI1327
V\u7fd4
sI1328
V\u85a6
sI1329
V\u9f13
sI1330
V\u4ecb
sI1331
V\u50cf
sI1332
V\u59ec
sI1333
V\u5e36
sI1334
V\u665a
sI1335
V\u8d74
sI1336
V\u8fe5
sI1337
V\u980c
sI1338
V\u4f69
sI1339
V\u51cb
sI1340
V\u5354
sI1341
V\u5b30
sI1342
V\u8981
sI1343
V\u5ce8
sI1344
V\u6350
sI1345
V\u7d04
sI1346
V\u8212
sI1347
V\u849e
sI1348
V\u5b40
sI1349
V\u62f1
sI1350
V\u7586
sI1351
V\u8073
sI1352
V\u8a4e
sI1353
V\u5019
sI1354
V\u6212
sI1355
V\u6c7e
sI1356
V\u7d0d
sI1357
V\u8cb3
sI1358
V\u5c0e
sI1359
V\u5eec
sI1360
V\u66e0
sI1361
V\u7518
sI1362
V\u8c6a
sI1363
V\u961c
sI1364
V\u5960
sI1365
V\u62db
sI1366
V\u7db8
sI1367
V\u91ab
sI1368
V\u99a5
sI1369
V\u596a
sI1370
V\u5edf
sI1371
V\u6daf
sI1372
V\u7af6
sI1373
V\u7b60
sI1374
V\u98fe
sI1375
V\u9f52
sI1376
V\u78a7
sI1377
V\u84fc
sI1378
V\u8559
sI1379
V\u4fef
sI1380
V\u54bd
sI1381
V\u690d
sI1382
V\u761e
sI1383
V\u837c
sI1384
V\u615a
sI1385
V\u7165
sI1386
V\u77e9
sI1387
V\u793e
sI1388
V\u5049
sI1389
V\u8d64
sI1390
V\u9285
sI1391
V\u6191
sI1392
V\u6ed4
sI1393
V\u706b
sI1394
V\u742c
sI1395
V\u99ae
sI1396
V\u9ece
sI1397
V\u9ed8
sI1398
V\u5e02
sI1399
V\u5faa
sI1400
V\u7405
sI1401
V\u8036
sI1402
V\u805a
sI1403
V\u541f
sI1404
V\u8862
sI1405
V\u5b55
sI1406
V\u758a
sI1407
V\u8b20
sI1408
V\u9a4d
sI1409
V\u525b
sI1410
V\u6700
sI1411
V\u6b86
sI1412
V\u6c11
sI1413
V\u7e82
sI1414
V\u91c7
sI1415
V\u96fb
sI1416
V\u51cc
sI1417
V\u6232
sI1418
V\u7ffb
sI1419
V\u8a9e
sI1420
V\u9bae
sI1421
V\u5713
sI1422
V\u5a5a
sI1423
V\u5e55
sI1424
V\u7591
sI1425
V\u8521
sI1426
V\u7db1
sI1427
V\u8087
sI1428
V\u994b
sI1429
V\u9a57
sI1430
V\u9e7f
sI1431
V\u501a
sI1432
V\u53cd
sI1433
V\u651d
sI1434
V\u65ec
sI1435
V\u6f5e
sI1436
V\u7a79
sI1437
V\u7d71
sI1438
V\u852d
sI1439
V\u8654
sI1440
V\u8f1f
sI1441
V\u95ab
sI1442
V\u9ebe
sI1443
V\u5db7
sI1444
V\u5e76
sI1445
V\u9839
sI1446
V\u5d69
sI1447
V\u7779
sI1448
V\u864e
sI1449
V\u9127
sI1450
V\u9a45
sI1451
V\u5074
sI1452
V\u768e
sI1453
V\u7891
sI1454
V\u7a1a
sI1455
V\u8a93
sI1456
V\u8a34
sI1457
V\u99d0
sI1458
V\u5967
sI1459
V\u675f
sI1460
V\u68ee
sI1461
V\u9707
sI1462
V\u5cb1
sI1463
V\u754c
sI1464
V\u7fdf
sI1465
V\u8a72
sI1466
V\u963f
sI1467
V\u9810
sI1468
V\u5546
sI1469
V\u5bee
sI1470
V\u5e25
sI1471
V\u6839
sI1472
V\u6cc1
sI1473
V\u6f58
sI1474
V\u8aaa
sI1475
V\u9662
sI1476
V\u9694
sI1477
V\u9700
sI1478
V\u5764
sI1479
V\u63d0
sI1480
V\u66ff
sI1481
V\u6a21
sI1482
V\u6e24
sI1483
V\u7a0b
sI1484
V\u7dba
sI1485
V\u8377
sI1486
V\u96f6
sI1487
V\u99b4
sI1488
V\u5e33
sI1489
V\u5ea7
sI1490
V\u708e
sI1491
V\u7a3d
sI1492
V\u7d33
sI1493
V\u807f
sI1494
V\u8543
sI1495
V\u906d
sI1496
V\u92d2
sI1497
V\u98c4
sI1498
V\u53e3
sI1499
V\u5de1
sI1500
V\u859b
sI1501
V\u8ca1
sI1502
V\u5200
sI1503
V\u5439
sI1504
V\u6d89
sI1505
V\u98f2
sI1506
V\u504f
sI1507
V\u5cb8
sI1508
V\u6089
sI1509
V\u6ea2
sI1510
V\u7de3
sI1511
V\u8a55
sI1512
V\u9010
sI1513
V\u50e7
sI1514
V\u58df
sI1515
V\u6cef
sI1516
V\u7be4
sI1517
V\u7e69
sI1518
V\u9762
sI1519
V\u9eef
sI1520
V\u4fb5
sI1521
V\u514d
sI1522
V\u6339
sI1523
V\u6d69
sI1524
V\u7df4
sI1525
V\u8ad2
sI1526
V\u8c8c
sI1527
V\u8cc1
sI1528
V\u6247
sI1529
V\u62ab
sI1530
V\u63ee
sI1531
V\u6416
sI1532
V\u6c6a
sI1533
V\u6ec4
sI1534
V\u7d1b
sI1535
V\u89bd
sI1536
V\u8a08
sI1537
V\u9087
sI1538
V\u93d8
sI1539
V\u96de
sI1540
V\u4f3c
sI1541
V\u4fdf
sI1542
V\u53ec
sI1543
V\u6025
sI1544
V\u793a
sI1545
V\u8e48
sI1546
V\u8f45
sI1547
V\u99df
sI1548
V\u675e
sI1549
V\u6773
sI1550
V\u6de8
sI1551
V\u7e54
sI1552
V\u9644
sI1553
V\u9808
sI1554
V\u4e19
sI1555
V\u60e1
sI1556
V\u6167
sI1557
V\u62bc
sI1558
V\u65e6
sI1559
V\u6912
sI1560
V\u6979
sI1561
V\u88fe
sI1562
V\u8ca7
sI1563
V\u5cb5
sI1564
V\u6134
sI1565
V\u633d
sI1566
V\u67d3
sI1567
V\u6ce8
sI1568
V\u6ecb
sI1569
V\u745e
sI1570
V\u82df
sI1571
V\u8569
sI1572
V\u8fce
sI1573
V\u96f7
sI1574
V\u5978
sI1575
V\u5a7a
sI1576
V\u606a
sI1577
V\u620c
sI1578
V\u65d7
sI1579
V\u6850
sI1580
V\u6d87
sI1581
V\u6f3f
sI1582
V\u7259
sI1583
V\u7a76
sI1584
V\u7f55
sI1585
V\u84ec
sI1586
V\u88f3
sI1587
V\u8a0e
sI1588
V\u582f
sI1589
V\u595a
sI1590
V\u5bde
sI1591
V\u5e2d
sI1592
V\u8986
sI1593
V\u8a2d
sI1594
V\u907f
sI1595
V\u9738
sI1596
V\u52a9
sI1597
V\u52f5
sI1598
V\u5c3c
sI1599
V\u6396
sI1600
V\u66a8
sI1601
V\u6bd3
sI1602
V\u6cdb
sI1603
V\u8463
sI1604
V\u9006
sI1605
V\u9095
sI1606
V\u97f6
sI1607
V\u4e56
sI1608
V\u4f5b
sI1609
V\u5132
sI1610
V\u5bd3
sI1611
V\u6230
sI1612
V\u6291
sI1613
V\u6aec
sI1614
V\u9a43
sI1615
V\u4f10
sI1616
V\u52e2
sI1617
V\u5c3a
sI1618
V\u5eab
sI1619
V\u63a7
sI1620
V\u6cbb
sI1621
V\u6f20
sI1622
V\u7d72
sI1623
V\u84ee
sI1624
V\u5370
sI1625
V\u5785
sI1626
V\u5b7a
sI1627
V\u6064
sI1628
V\u6127
sI1629
V\u6536
sI1630
V\u6cd7
sI1631
V\u6e2d
sI1632
V\u6e56
sI1633
V\u8870
sI1634
V\u889e
sI1635
V\u4e88
sI1636
V\u5114
sI1637
V\u6602
sI1638
V\u66f3
sI1639
V\u67f4
sI1640
V\u6f33
sI1641
V\u7d22
sI1642
V\u851a
sI1643
V\u89ba
sI1644
V\u8c9d
sI1645
V\u5983
sI1646
V\u5a25
sI1647
V\u5cd9
sI1648
V\u64da
sI1649
V\u6df9
sI1650
V\u718a
sI1651
V\u754f
sI1652
V\u75c5
sI1653
V\u788e
sI1654
V\u8305
sI1655
V\u85f9
sI1656
V\u9044
sI1657
V\u537b
sI1658
V\u55ac
sI1659
V\u6691
sI1660
V\u76e4
sI1661
V\u8cca
sI1662
V\u907c
sI1663
V\u9817
sI1664
V\u4f47
sI1665
V\u5a9b
sI1666
V\u6885
sI1667
V\u9df9
sI1668
V\u5404
sI1669
V\u59ca
sI1670
V\u5fcd
sI1671
V\u63e1
sI1672
V\u768b
sI1673
V\u8912
sI1674
V\u9c57
sI1675
V\u9e7d
sI1676
V\u5834
sI1677
V\u59a3
sI1678
V\u6234
sI1679
V\u6795
sI1680
V\u6e5b
sI1681
V\u6fc0
sI1682
V\u6ff1
sI1683
V\u722d
sI1684
V\u8c6b
sI1685
V\u96dc
sI1686
V\u99d2
sI1687
V\u51a4
sI1688
V\u5339
sI1689
V\u5442
sI1690
V\u5bb5
sI1691
V\u621f
sI1692
V\u664f
sI1693
V\u6a13
sI1694
V\u6bdb
sI1695
V\u701b
sI1696
V\u81e7
sI1697
V\u8b80
sI1698
V\u8fb1
sI1699
V\u9632
sI1700
V\u96c9
sI1701
V\u99ad
sI1702
V\u5fdd
sI1703
V\u6bd7
sI1704
V\u6e2c
sI1705
V\u756b
sI1706
V\u7b95
sI1707
V\u8896
sI1708
V\u8b1a
sI1709
V\u8cbf
sI1710
V\u513c
sI1711
V\u5340
sI1712
V\u566b
sI1713
V\u5e1b
sI1714
V\u64d7
sI1715
V\u66a2
sI1716
V\u8cf4
sI1717
V\u9f4b
sI1718
V\u52c1
sI1719
V\u59b9
sI1720
V\u6b47
sI1721
V\u6e6f
sI1722
V\u85b0
sI1723
V\u9621
sI1724
V\u9685
sI1725
V\u9a01
sI1726
V\u5f64
sI1727
V\u6bd2
sI1728
V\u7587
sI1729
V\u812b
sI1730
V\u983b
sI1731
V\u5305
sI1732
V\u5be1
sI1733
V\u6c7a
sI1734
V\u6e3e
sI1735
V\u78a9
sI1736
V\u843c
sI1737
V\u86c7
sI1738
V\u50f9
sI1739
V\u58fa
sI1740
V\u596e
sI1741
V\u5c7a
sI1742
V\u6697
sI1743
V\u67ef
sI1744
V\u6977
sI1745
V\u6c88
sI1746
V\u7dd7
sI1747
V\u821e
sI1748
V\u9072
sI1749
V\u54e5
sI1750
V\u66ab
sI1751
V\u68fa
sI1752
V\u6bb5
sI1753
V\u6c74
sI1754
V\u6f14
sI1755
V\u7252
sI1756
V\u759a
sI1757
V\u7f3a
sI1758
V\u8e35
sI1759
V\u5203
sI1760
V\u5323
sI1761
V\u53e2
sI1762
V\u63f4
sI1763
V\u6551
sI1764
V\u6575
sI1765
V\u66b4
sI1766
V\u6ed5
sI1767
V\u757f
sI1768
V\u900d
sI1769
V\u57cf
sI1770
V\u5ed3
sI1771
V\u5fb9
sI1772
V\u72c0
sI1773
V\u73a9
sI1774
V\u7bad
sI1775
V\u8aeb
sI1776
V\u5272
sI1777
V\u5f3c
sI1778
V\u61cb
sI1779
V\u6383
sI1780
V\u63be
sI1781
V\u67e9
sI1782
V\u6b12
sI1783
V\u6c82
sI1784
V\u6d6a
sI1785
V\u7051
sI1786
V\u7538
sI1787
V\u7a37
sI1788
V\u7da0
sI1789
V\u81e5
sI1790
V\u840a
sI1791
V\u88c2
sI1792
V\u8a2a
sI1793
V\u8feb
sI1794
V\u9642
sI1795
V\u9813
sI1796
V\u99a8
sI1797
V\u58f9
sI1798
V\u5948
sI1799
V\u5bb4
sI1800
V\u5bb8
sI1801
V\u5c4f
sI1802
V\u620d
sI1803
V\u6297
sI1804
V\u64c1
sI1805
V\u66f7
sI1806
V\u6848
sI1807
V\u6fef
sI1808
V\u707c
sI1809
V\u7433
sI1810
V\u7737
sI1811
V\u77dc
sI1812
V\u7941
sI1813
V\u7b75
sI1814
V\u8086
sI1815
V\u8aa6
sI1816
V\u5473
sI1817
V\u5beb
sI1818
V\u6028
sI1819
V\u6367
sI1820
V\u6c90
sI1821
V\u6c9b
sI1822
V\u7bb4
sI1823
V\u7d62
sI1824
V\u7ddd
sI1825
V\u7def
sI1826
V\u7f70
sI1827
V\u7f8a
sI1828
V\u85c9
sI1829
V\u88d8
sI1830
V\u9063
sI1831
V\u96aa
sI1832
V\u4f0d
sI1833
V\u53ea
sI1834
V\u64ec
sI1835
V\u683c
sI1836
V\u7aba
sI1837
V\u7d8f
sI1838
V\u7d9c
sI1839
V\u7f79
sI1840
V\u858a
sI1841
V\u89d2
sI1842
V\u95e1
sI1843
V\u9769
sI1844
V\u4e95
sI1845
V\u58d8
sI1846
V\u5a23
sI1847
V\u6f6d
sI1848
V\u756a
sI1849
V\u8b59
sI1850
V\u8dbe
sI1851
V\u8ff7
sI1852
V\u9594
sI1853
V\u4f4f
sI1854
V\u5287
sI1855
V\u5dee
sI1856
V\u5f04
sI1857
V\u6043
sI1858
V\u6170
sI1859
V\u6b84
sI1860
V\u81fb
sI1861
V\u83aa
sI1862
V\u845b
sI1863
V\u582a
sI1864
V\u59d2
sI1865
V\u6574
sI1866
V\u6a3d
sI1867
V\u6eef
sI1868
V\u803f
sI1869
V\u8e64
sI1870
V\u9041
sI1871
V\u98c6
sI1872
V\u53b2
sI1873
V\u5c4b
sI1874
V\u5dbd
sI1875
V\u6a0a
sI1876
V\u714c
sI1877
V\u7522
sI1878
V\u7f88
sI1879
V\u97de
sI1880
V\u4ede
sI1881
V\u5275
sI1882
V\u52ff
sI1883
V\u55ae
sI1884
V\u58c7
sI1885
V\u5be5
sI1886
V\u5f91
sI1887
V\u606c
sI1888
V\u6249
sI1889
V\u6582
sI1890
V\u6978
sI1891
V\u6986
sI1892
V\u7f44
sI1893
V\u8178
sI1894
V\u8662
sI1895
V\u884d
sI1896
V\u8b28
sI1897
V\u90aa
sI1898
V\u9134
sI1899
V\u9ce7
sI1900
V\u5256
sI1901
V\u589f
sI1902
V\u5dcd
sI1903
V\u6df7
sI1904
V\u6e1a
sI1905
V\u6fee
sI1906
V\u7633
sI1907
V\u7d05
sI1908
V\u80a5
sI1909
V\u963b
sI1910
V\u97a0
sI1911
V\u9b3c
sI1912
V\u4e9f
sI1913
V\u51dc
sI1914
V\u59da
sI1915
V\u5cab
sI1916
V\u6597
sI1917
V\u734e
sI1918
V\u7db0
sI1919
V\u7dc7
sI1920
V\u8aa8
sI1921
V\u8c82
sI1922
V\u9119
sI1923
V\u4ec7
sI1924
V\u4f94
sI1925
V\u508d
sI1926
V\u5b9b
sI1927
V\u6065
sI1928
V\u67d0
sI1929
V\u6c1b
sI1930
V\u6fb9
sI1931
V\u722a
sI1932
V\u731b
sI1933
V\u7d43
sI1934
V\u7f6a
sI1935
V\u82de
sI1936
V\u865c
sI1937
V\u9177
sI1938
V\u9435
sI1939
V\u4e08
sI1940
V\u50da
sI1941
V\u5360
sI1942
V\u53e9
sI1943
V\u5955
sI1944
V\u6200
sI1945
V\u639b
sI1946
V\u63a2
sI1947
V\u6853
sI1948
V\u6a4b
sI1949
V\u6cbc
sI1950
V\u6e1d
sI1951
V\u6e98
sI1952
V\u6ed1
sI1953
V\u7a2e
sI1954
V\u7b97
sI1955
V\u7ff9
sI1956
V\u856a
sI1957
V\u8a23
sI1958
V\u8e8d
sI1959
V\u8f2f
sI1960
V\u9264
sI1961
V\u9d72
sI1962
V\u513b
sI1963
V\u65ac
sI1964
V\u6b3a
sI1965
V\u7344
sI1966
V\u8679
sI1967
V\u8930
sI1968
V\u8e34
sI1969
V\u557c
sI1970
V\u63aa
sI1971
V\u64fe
sI1972
V\u6790
sI1973
V\u6a1e
sI1974
V\u6d0b
sI1975
V\u7aca
sI1976
V\u7ae6
sI1977
V\u7ff3
sI1978
V\u8c79
sI1979
V\u8e85
sI1980
V\u8f42
sI1981
V\u9d6c
sI1982
V\u53ad
sI1983
V\u5ae1
sI1984
V\u5c91
sI1985
V\u5df7
sI1986
V\u5f17
sI1987
V\u62ec
sI1988
V\u68df
sI1989
V\u6a80
sI1990
V\u6b23
sI1991
V\u6beb
sI1992
V\u6d79
sI1993
V\u72c4
sI1994
V\u7bc7
sI1995
V\u8277
sI1996
V\u84b8
sI1997
V\u9663
sI1998
V\u9824
sI1999
V\u50c9
sI2000
V\u562f
sI2001
V\u5718
sI2002
V\u5880
sI2003
V\u5deb
sI2004
V\u5f48
sI2005
V\u5fd2
sI2006
V\u6dfc
sI2007
V\u7070
sI2008
V\u7e61
sI2009
V\u8aed
sI2010
V\u8b01
sI2011
V\u8b1b
sI2012
V\u914c
sI2013
V\u9695
sI2014
V\u9756
sI2015
V\u980a
sI2016
V\u9aee
sI2017
V\u5dfe
sI2018
V\u6d17
sI2019
V\u7246
sI2020
V\u7525
sI2021
V\u7620
sI2022
V\u7957
sI2023
V\u7a88
sI2024
V\u81da
sI2025
V\u85cd
sI2026
V\u863f
sI2027
V\u88c1
sI2028
V\u8da3
sI2029
V\u8f29
sI2030
V\u905e
sI2031
V\u90a2
sI2032
V\u90b5
sI2033
V\u964c
sI2034
V\u9a2b
sI2035
V\u4eb3
sI2036
V\u5230
sI2037
V\u540e
sI2038
V\u5426
sI2039
V\u55bb
sI2040
V\u5b69
sI2041
V\u5df4
sI2042
V\u6055
sI2043
V\u6dc4
sI2044
V\u78da
sI2045
V\u7d30
sI2046
V\u8403
sI2047
V\u8afe
sI2048
V\u9245
sI2049
V\u96b8
sI2050
V\u970f
sI2051
V\u982d
sI2052
V\u5448
sI2053
V\u70b3
sI2054
V\u77ef
sI2055
V\u7834
sI2056
V\u7948
sI2057
V\u7c4c
sI2058
V\u7e8c
sI2059
V\u8093
sI2060
V\u8fc5
sI2061
V\u916c
sI2062
V\u9178
sI2063
V\u9952
sI2064
V\u9a42
sI2065
V\u585a
sI2066
V\u5974
sI2067
V\u5be9
sI2068
V\u5bf0
sI2069
V\u5eca
sI2070
V\u5f87
sI2071
V\u72af
sI2072
V\u7635
sI2073
V\u79a6
sI2074
V\u79b9
sI2075
V\u7c2b
sI2076
V\u84c4
sI2077
V\u8881
sI2078
V\u8d0d
sI2079
V\u901f
sI2080
V\u90b8
sI2081
V\u95a5
sI2082
V\u611a
sI2083
V\u6248
sI2084
V\u62c2
sI2085
V\u63d6
sI2086
V\u676d
sI2087
V\u6e25
sI2088
V\u6e9f
sI2089
V\u7e11
sI2090
V\u8179
sI2091
V\u8ce4
sI2092
V\u90a3
sI2093
V\u9102
sI2094
V\u9a64
sI2095
V\u9f60
sI2096
V\u4ed7
sI2097
V\u4fb6
sI2098
V\u5ac1
sI2099
V\u6222
sI2100
V\u66e6
sI2101
V\u7169
sI2102
V\u790e
sI2103
V\u798e
sI2104
V\u819d
sI2105
V\u9aeb
sI2106
V\u4e4f
sI2107
V\u5a29
sI2108
V\u5ee2
sI2109
V\u6020
sI2110
V\u6042
sI2111
V\u614b
sI2112
V\u6168
sI2113
V\u6c72
sI2114
V\u7247
sI2115
V\u7504
sI2116
V\u7cb2
sI2117
V\u8f26
sI2118
V\u904d
sI2119
V\u9083
sI2120
V\u95cb
sI2121
V\u4e15
sI2122
V\u524a
sI2123
V\u526a
sI2124
V\u58de
sI2125
V\u5bb3
sI2126
V\u6062
sI2127
V\u614d
sI2128
V\u79bd
sI2129
V\u7e08
sI2130
V\u7fe9
sI2131
V\u8a79
sI2132
V\u8fe8
sI2133
V\u5026
sI2134
V\u5137
sI2135
V\u5f8a
sI2136
V\u6108
sI2137
V\u653b
sI2138
V\u666e
sI2139
V\u68a7
sI2140
V\u6d63
sI2141
V\u71c8
sI2142
V\u7c9f
sI2143
V\u7d06
sI2144
V\u7fee
sI2145
V\u87fb
sI2146
V\u9210
sI2147
V\u9b23
sI2148
V\u4f8b
sI2149
V\u50c5
sI2150
V\u51f1
sI2151
V\u52ac
sI2152
V\u52ad
sI2153
V\u640d
sI2154
V\u6664
sI2155
V\u67af
sI2156
V\u6b3e
sI2157
V\u6b83
sI2158
V\u6eaa
sI2159
V\u7248
sI2160
V\u7a0d
sI2161
V\u7b11
sI2162
V\u7c73
sI2163
V\u7e09
sI2164
V\u7e47
sI2165
V\u8174
sI2166
V\u8cc0
sI2167
V\u9112
sI2168
V\u99ff
sI2169
V\u9edc
sI2170
V\u53eb
sI2171
V\u5703
sI2172
V\u5bf8
sI2173
V\u5f82
sI2174
V\u6e20
sI2175
V\u71e6
sI2176
V\u7470
sI2177
V\u76dc
sI2178
V\u7a95
sI2179
V\u7b33
sI2180
V\u8089
sI2181
V\u81b3
sI2182
V\u8629
sI2183
V\u8a63
sI2184
V\u8c4e
sI2185
V\u990c
sI2186
V\u501f
sI2187
V\u51b6
sI2188
V\u51c6
sI2189
V\u5b5c
sI2190
V\u6c57
sI2191
V\u725f
sI2192
V\u7960
sI2193
V\u7fb8
sI2194
V\u8204
sI2195
V\u821c
sI2196
V\u8c46
sI2197
V\u92b3
sI2198
V\u52c9
sI2199
V\u52d6
sI2200
V\u5996
sI2201
V\u60d1
sI2202
V\u61a4
sI2203
V\u6377
sI2204
V\u65c1
sI2205
V\u68e3
sI2206
V\u6dbf
sI2207
V\u6fe4
sI2208
V\u711a
sI2209
V\u75b9
sI2210
V\u773a
sI2211
V\u840e
sI2212
V\u8877
sI2213
V\u89f8
sI2214
V\u8a62
sI2215
V\u8fa8
sI2216
V\u4e5e
sI2217
V\u52f8
sI2218
V\u53e5
sI2219
V\u57a3
sI2220
V\u5d47
sI2221
V\u5f98
sI2222
V\u6019
sI2223
V\u6309
sI2224
V\u640f
sI2225
V\u6687
sI2226
V\u67b6
sI2227
V\u6c83
sI2228
V\u6d5a
sI2229
V\u6d88
sI2230
V\u733f
sI2231
V\u73c9
sI2232
V\u75fc
sI2233
V\u7814
sI2234
V\u792a
sI2235
V\u7ac7
sI2236
V\u7d79
sI2237
V\u8015
sI2238
V\u8202
sI2239
V\u8abc
sI2240
V\u8b49
sI2241
V\u91c1
sI2242
V\u962a
sI2243
V\u507d
sI2244
V\u54a8
sI2245
V\u5a1b
sI2246
V\u6263
sI2247
V\u6392
sI2248
V\u7489
sI2249
V\u7c89
sI2250
V\u8564
sI2251
V\u887f
sI2252
V\u978f
sI2253
V\u5401
sI2254
V\u5b5a
sI2255
V\u5da0
sI2256
V\u60a3
sI2257
V\u6106
sI2258
V\u63c6
sI2259
V\u6677
sI2260
V\u672d
sI2261
V\u6df5
sI2262
V\u7006
sI2263
V\u72ce
sI2264
V\u7707
sI2265
V\u80b1
sI2266
V\u8f4d
sI2267
V\u904f
sI2268
V\u91b4
sI2269
V\u96b0
sI2270
V\u970d
sI2271
V\u4e9e
sI2272
V\u5c60
sI2273
V\u5c64
sI2274
V\u5e87
sI2275
V\u5ea0
sI2276
V\u6ba4
sI2277
V\u6ce5
sI2278
V\u6f01
sI2279
V\u6fc1
sI2280
V\u719f
sI2281
V\u72fc
sI2282
V\u7579
sI2283
V\u777f
sI2284
V\u77e2
sI2285
V\u7fa8
sI2286
V\u8ab2
sI2287
V\u8d70
sI2288
V\u921e
sI2289
V\u9677
sI2290
V\u9ae6
sI2291
V\u53db
sI2292
V\u541e
sI2293
V\u58ae
sI2294
V\u58c1
sI2295
V\u61c7
sI2296
V\u6b96
sI2297
V\u6f97
sI2298
V\u72d0
sI2299
V\u740a
sI2300
V\u7bc9
sI2301
V\u7fe6
sI2302
V\u85d0
sI2303
V\u8af7
sI2304
V\u9106
sI2305
V\u93e4
sI2306
V\u9ed4
sI2307
V\u4f4e
sI2308
V\u5154
sI2309
V\u55a7
sI2310
V\u56f0
sI2311
V\u5f0a
sI2312
V\u6e58
sI2313
V\u7258
sI2314
V\u7469
sI2315
V\u7dec
sI2316
V\u8a85
sI2317
V\u8b5c
sI2318
V\u8caa
sI2319
V\u8e4a
sI2320
V\u9a5b
sI2321
V\u50ac
sI2322
V\u50b2
sI2323
V\u5189
sI2324
V\u5320
sI2325
V\u60fb
sI2326
V\u6493
sI2327
V\u658c
sI2328
V\u69d0
sI2329
V\u727d
sI2330
V\u7693
sI2331
V\u84cd
sI2332
V\u8983
sI2333
V\u8fc4
sI2334
V\u9249
sI2335
V\u932f
sI2336
V\u9853
sI2337
V\u4e86
sI2338
V\u5471
sI2339
V\u56c2
sI2340
V\u5f79
sI2341
V\u5ffb
sI2342
V\u6012
sI2343
V\u601b
sI2344
V\u6469
sI2345
V\u651c
sI2346
V\u6a84
sI2347
V\u6d78
sI2348
V\u6e6e
sI2349
V\u78e8
sI2350
V\u83e9
sI2351
V\u887e
sI2352
V\u8a1f
sI2353
V\u8cb6
sI2354
V\u8d16
sI2355
V\u8f38
sI2356
V\u91dd
sI2357
V\u5636
sI2358
V\u5a7f
sI2359
V\u5dd2
sI2360
V\u5fc9
sI2361
V\u619a
sI2362
V\u63db
sI2363
V\u66e9
sI2364
V\u6cbe
sI2365
V\u6e19
sI2366
V\u704c
sI2367
V\u745a
sI2368
V\u7554
sI2369
V\u78a3
sI2370
V\u795d
sI2371
V\u7dbd
sI2372
V\u7e98
sI2373
V\u804a
sI2374
V\u809d
sI2375
V\u80a1
sI2376
V\u81d8
sI2377
V\u82bb
sI2378
V\u84c0
sI2379
V\u8523
sI2380
V\u8913
sI2381
V\u8aa5
sI2382
V\u8b2c
sI2383
V\u598d
sI2384
V\u5f27
sI2385
V\u5fcc
sI2386
V\u615d
sI2387
V\u6789
sI2388
V\u6982
sI2389
V\u6f23
sI2390
V\u4e4d
sI2391
V\u4ed8
sI2392
V\u501c
sI2393
V\u5de7
sI2394
V\u65c4
sI2395
V\u65c6
sI2396
V\u65d2
sI2397
V\u6db5
sI2398
V\u7378
sI2399
V\u745c
sI2400
V\u7db2
sI2401
V\u7df1
sI2402
V\u8fe4
sI2403
V\u90e2
sI2404
V\u9293
sI2405
V\u964b
sI2406
V\u9a0f
sI2407
V\u9a5f
sI2408
V\u9a6a
sI2409
V\u9f94
sI2410
V\u5766
sI2411
V\u5b7d
sI2412
V\u5e79
sI2413
V\u6897
sI2414
V\u749c
sI2415
V\u75b2
sI2416
V\u7dd8
sI2417
V\u80a9
sI2418
V\u85aa
sI2419
V\u86df
sI2420
V\u8aee
sI2421
V\u8ec0
sI2422
V\u8f12
sI2423
V\u95d4
sI2424
V\u968a
sI2425
V\u9b41
sI2426
V\u9ed1
sI2427
V\u4fce
sI2428
V\u51b7
sI2429
V\u51f0
sI2430
V\u5331
sI2431
V\u5aaf
sI2432
V\u5c8c
sI2433
V\u5e44
sI2434
V\u6094
sI2435
V\u65c3
sI2436
V\u68e0
sI2437
V\u6b37
sI2438
V\u6e9d
sI2439
V\u72c2
sI2440
V\u7375
sI2441
V\u74dc
sI2442
V\u7b19
sI2443
V\u7e1f
sI2444
V\u7f9e
sI2445
V\u7fe5
sI2446
V\u83dc
sI2447
V\u866f
sI2448
V\u8ea1
sI2449
V\u962e
sI2450
V\u9a55
sI2451
V\u9ce9
sI2452
V\u4fe0
sI2453
V\u4ff8
sI2454
V\u5a9a
sI2455
V\u5d16
sI2456
V\u61ab
sI2457
V\u62bd
sI2458
V\u62d3
sI2459
V\u6557
sI2460
V\u66c4
sI2461
V\u6968
sI2462
V\u69e8
sI2463
V\u6de1
sI2464
V\u7166
sI2465
V\u7199
sI2466
V\u72ac
sI2467
V\u74bd
sI2468
V\u76df
sI2469
V\u7de0
sI2470
V\u8cbb
sI2471
V\u9591
sI2472
V\u9ebb
sI2473
V\u9efb
sI2474
V\u9f54
sI2475
V\u4f09
sI2476
V\u533f
sI2477
V\u548e
sI2478
V\u570d
sI2479
V\u57c3
sI2480
V\u5c46
sI2481
V\u5dfd
sI2482
V\u5e8a
sI2483
V\u60b4
sI2484
V\u61c8
sI2485
V\u622a
sI2486
V\u6258
sI2487
V\u677f
sI2488
V\u6b82
sI2489
V\u6f2b
sI2490
V\u7126
sI2491
V\u721b
sI2492
V\u7256
sI2493
V\u749e
sI2494
V\u7b54
sI2495
V\u7fcc
sI2496
V\u8006
sI2497
V\u80ce
sI2498
V\u860b
sI2499
V\u8757
sI2500
V\u8831
sI2501
V\u883b
sI2502
V\u89b2
sI2503
V\u8ca8
sI2504
V\u8fea
sI2505
V\u9015
sI2506
V\u925e
sI2507
V\u9322
sI2508
V\u947e
sI2509
V\u95bb
sI2510
V\u5104
sI2511
V\u52c3
sI2512
V\u52fe
sI2513
V\u5885
sI2514
V\u58d9
sI2515
V\u5a46
sI2516
V\u5c4d
sI2517
V\u6bab
sI2518
V\u6ccc
sI2519
V\u6d59
sI2520
V\u6f2a
sI2521
V\u7162
sI2522
V\u758b
sI2523
V\u76e5
sI2524
V\u7d1a
sI2525
V\u803d
sI2526
V\u8170
sI2527
V\u8511
sI2528
V\u8604
sI2529
V\u8857
sI2530
V\u8a6e
sI2531
V\u8b10
sI2532
V\u9654
sI2533
V\u9d1b
sI2534
V\u4f38
sI2535
V\u52ab
sI2536
V\u5962
sI2537
V\u5984
sI2538
V\u5a09
sI2539
V\u5c63
sI2540
V\u5f5d
sI2541
V\u6059
sI2542
V\u6084
sI2543
V\u623e
sI2544
V\u62d8
sI2545
V\u679a
sI2546
V\u6c5c
sI2547
V\u6ceb
sI2548
V\u6db2
sI2549
V\u6f02
sI2550
V\u6f88
sI2551
V\u701d
sI2552
V\u71be
sI2553
V\u742e
sI2554
V\u78ca
sI2555
V\u7a05
sI2556
V\u7a1c
sI2557
V\u7db4
sI2558
V\u7e3b
sI2559
V\u81bd
sI2560
V\u8513
sI2561
V\u8fed
sI2562
V\u9036
sI2563
V\u9354
sI2564
V\u95e5
sI2565
V\u96bc
sI2566
V\u99d9
sI2567
V\u9efc
sI2568
V\u4f3d
sI2569
V\u51fd
sI2570
V\u5310
sI2571
V\u55dc
sI2572
V\u584a
sI2573
V\u5e7b
sI2574
V\u5e95
sI2575
V\u6599
sI2576
V\u65a7
sI2577
V\u6a11
sI2578
V\u6c33
sI2579
V\u6f0f
sI2580
V\u7296
sI2581
V\u7422
sI2582
V\u7684
sI2583
V\u770b
sI2584
V\u7a81
sI2585
V\u7a9f
sI2586
V\u7e96
sI2587
V\u80f8
sI2588
V\u81a0
sI2589
V\u840f
sI2590
V\u854a
sI2591
V\u8941
sI2592
V\u8f61
sI2593
V\u9ab8
sI2594
V\u9bc1
sI2595
V\u5029
sI2596
V\u563b
sI2597
V\u59c6
sI2598
V\u6177
sI2599
V\u62ef
sI2600
V\u6476
sI2601
V\u6556
sI2602
V\u6cb9
sI2603
V\u6fe1
sI2604
V\u7280
sI2605
V\u73e5
sI2606
V\u76cd
sI2607
V\u77da
sI2608
V\u7bcb
sI2609
V\u7de9
sI2610
V\u7e6b
sI2611
V\u8058
sI2612
V\u8340
sI2613
V\u88cf
sI2614
V\u8a98
sI2615
V\u8b2b
sI2616
V\u8c73
sI2617
V\u8cfb
sI2618
V\u9460
sI2619
V\u95be
sI2620
V\u9f90
sI2621
V\u4e92
sI2622
V\u5115
sI2623
V\u5f14
sI2624
V\u6128
sI2625
V\u6adb
sI2626
V\u6d74
sI2627
V\u73b7
sI2628
V\u7403
sI2629
V\u77b0
sI2630
V\u7a14
sI2631
V\u7bc1
sI2632
V\u7c1f
sI2633
V\u7fc1
sI2634
V\u80d9
sI2635
V\u82eb
sI2636
V\u82f4
sI2637
V\u83df
sI2638
V\u83f2
sI2639
V\u840b
sI2640
V\u840c
sI2641
V\u853d
sI2642
V\u8cba
sI2643
V\u8d73
sI2644
V\u8e47
sI2645
V\u8efc
sI2646
V\u9051
sI2647
V\u98af
sI2648
V\u9a16
sI2649
V\u9be8
sI2650
V\u9e93
sI2651
V\u5192
sI2652
V\u52df
sI2653
V\u530d
sI2654
V\u56ff
sI2655
V\u58da
sI2656
V\u5ee1
sI2657
V\u5fbc
sI2658
V\u6190
sI2659
V\u64a4
sI2660
V\u65ed
sI2661
V\u67d2
sI2662
V\u6fa0
sI2663
V\u6feb
sI2664
V\u7262
sI2665
V\u73fe
sI2666
V\u75ca
sI2667
V\u7642
sI2668
V\u80e5
sI2669
V\u822c
sI2670
V\u89f4
sI2671
V\u8a1b
sI2672
V\u8b07
sI2673
V\u8b5a
sI2674
V\u8e55
sI2675
V\u8ef8
sI2676
V\u9003
sI2677
V\u925b
sI2678
V\u947f
sI2679
V\u9650
sI2680
V\u965b
sI2681
V\u96c0
sI2682
V\u9daf
sI2683
V\u9f20
sI2684
V\u4e73
sI2685
V\u500d
sI2686
V\u5ebe
sI2687
V\u5f6c
sI2688
V\u60b6
sI2689
V\u6137
sI2690
V\u693f
sI2691
V\u6b59
sI2692
V\u6b89
sI2693
V\u6cca
sI2694
V\u6d32
sI2695
V\u6e67
sI2696
V\u6ec1
sI2697
V\u71ee
sI2698
V\u755d
sI2699
V\u81c2
sI2700
V\u827e
sI2701
V\u87f2
sI2702
V\u8cb7
sI2703
V\u8f44
sI2704
V\u8fe2
sI2705
V\u909b
sI2706
V\u95c3
sI2707
V\u9744
sI2708
V\u99ed
sI2709
V\u9ad3
sI2710
V\u9b25
sI2711
V\u5531
sI2712
V\u56ca
sI2713
V\u5914
sI2714
V\u599d
sI2715
V\u5bd0
sI2716
V\u5c51
sI2717
V\u60d5
sI2718
V\u62d2
sI2719
V\u63a1
sI2720
V\u64d2
sI2721
V\u677c
sI2722
V\u6c94
sI2723
V\u6d85
sI2724
V\u7455
sI2725
V\u74a3
sI2726
V\u7601
sI2727
V\u76fe
sI2728
V\u7791
sI2729
V\u7a7f
sI2730
V\u7bea
sI2731
V\u7c60
sI2732
V\u7e55
sI2733
V\u7e5e
sI2734
V\u7e8a
sI2735
V\u819a
sI2736
V\u83bd
sI2737
V\u85ea
sI2738
V\u8e8b
sI2739
V\u8ed4
sI2740
V\u8ff4
sI2741
V\u905c
sI2742
V\u9438
sI2743
V\u98bc
sI2744
V\u59e8
sI2745
V\u5ca1
sI2746
V\u5d26
sI2747
V\u5e1a
sI2748
V\u62b5
sI2749
V\u6522
sI2750
V\u656b
sI2751
V\u659c
sI2752
V\u67c4
sI2753
V\u6cae
sI2754
V\u6cb8
sI2755
V\u6cbf
sI2756
V\u6dfa
sI2757
V\u6e21
sI2758
V\u6ecf
sI2759
V\u6f06
sI2760
V\u70f9
sI2761
V\u7149
sI2762
V\u741b
sI2763
V\u7704
sI2764
V\u78ba
sI2765
V\u795f
sI2766
V\u79b1
sI2767
V\u7bb1
sI2768
V\u7ce7
sI2769
V\u7cfe
sI2770
V\u7fb2
sI2771
V\u821b
sI2772
V\u8ae4
sI2773
V\u8b9c
sI2774
V\u8f05
sI2775
V\u9031
sI2776
V\u903c
sI2777
V\u9080
sI2778
V\u9463
sI2779
V\u95ac
sI2780
V\u99e2
sI2781
V\u9b22
sI2782
V\u9bc9
sI2783
V\u4f83
sI2784
V\u503c
sI2785
V\u5819
sI2786
V\u5a92
sI2787
V\u5ab2
sI2788
V\u5b99
sI2789
V\u5cfd
sI2790
V\u5ec2
sI2791
V\u5f4e
sI2792
V\u5fe4
sI2793
V\u62d6
sI2794
V\u665f
sI2795
V\u699b
sI2796
V\u699c
sI2797
V\u6c13
sI2798
V\u6c24
sI2799
V\u6c76
sI2800
V\u6ecc
sI2801
V\u6f70
sI2802
V\u705e
sI2803
V\u715e
sI2804
V\u7825
sI2805
V\u7d08
sI2806
V\u7d6e
sI2807
V\u82d5
sI2808
V\u8650
sI2809
V\u8882
sI2810
V\u8b33
sI2811
V\u8b9a
sI2812
V\u8c41
sI2813
V\u9016
sI2814
V\u9035
sI2815
V\u90df
sI2816
V\u91dc
sI2817
V\u96cc
sI2818
V\u4fde
sI2819
V\u502c
sI2820
V\u5162
sI2821
V\u572d
sI2822
V\u59dd
sI2823
V\u5a41
sI2824
V\u5f6a
sI2825
V\u617e
sI2826
V\u61b6
sI2827
V\u622e
sI2828
V\u633e
sI2829
V\u641c
sI2830
V\u65a5
sI2831
V\u6684
sI2832
V\u689f
sI2833
V\u6a58
sI2834
V\u6eba
sI2835
V\u733e
sI2836
V\u73ea
sI2837
V\u76ae
sI2838
V\u78d0
sI2839
V\u7967
sI2840
V\u79b0
sI2841
V\u7ac4
sI2842
V\u7c3d
sI2843
V\u7c50
sI2844
V\u7d19
sI2845
V\u7e1e
sI2846
V\u7e37
sI2847
V\u7f8c
sI2848
V\u7ff1
sI2849
V\u85a9
sI2850
V\u892b
sI2851
V\u8a25
sI2852
V\u8aa3
sI2853
V\u8ae6
sI2854
V\u8de8
sI2855
V\u91e3
sI2856
V\u9672
sI2857
V\u9688
sI2858
V\u9805
sI2859
V\u9ede
sI2860
V\u9f59
sI2861
V\u574e
sI2862
V\u592e
sI2863
V\u593e
sI2864
V\u5abe
sI2865
V\u5cf4
sI2866
V\u5f0b
sI2867
V\u676f
sI2868
V\u6775
sI2869
V\u6a38
sI2870
V\u6dc7
sI2871
V\u6e4d
sI2872
V\u6e96
sI2873
V\u701a
sI2874
V\u70fd
sI2875
V\u72a2
sI2876
V\u7658
sI2877
V\u78f7
sI2878
V\u795c
sI2879
V\u7da2
sI2880
V\u7f94
sI2881
V\u8102
sI2882
V\u82d2
sI2883
V\u8469
sI2884
V\u8473
sI2885
V\u852c
sI2886
V\u8a16
sI2887
V\u8a75
sI2888
V\u8c55
sI2889
V\u8cfe
sI2890
V\u90f4
sI2891
V\u93d7
sI2892
V\u95e2
sI2893
V\u96b3
sI2894
V\u9802
sI2895
V\u980e
sI2896
V\u5012
sI2897
V\u535e
sI2898
V\u5864
sI2899
V\u5c3e
sI2900
V\u5d50
sI2901
V\u5e61
sI2902
V\u5ff1
sI2903
V\u6607
sI2904
V\u6670
sI2905
V\u66d9
sI2906
V\u68b5
sI2907
V\u69bb
sI2908
V\u6abb
sI2909
V\u6d39
sI2910
V\u6e3a
sI2911
V\u6e4a
sI2912
V\u6e9c
sI2913
V\u6fa7
sI2914
V\u7487
sI2915
V\u763c
sI2916
V\u7df9
sI2917
V\u7faf
sI2918
V\u822a
sI2919
V\u85fa
sI2920
V\u8606
sI2921
V\u8839
sI2922
V\u887d
sI2923
V\u88e8
sI2924
V\u8efe
sI2925
V\u9812
sI2926
V\u98ed
sI2927
V\u9951
sI2928
V\u4e38
sI2929
V\u4f51
sI2930
V\u5065
sI2931
V\u5077
sI2932
V\u566c
sI2933
V\u572e
sI2934
V\u586b
sI2935
V\u5cb7
sI2936
V\u5ec1
sI2937
V\u611c
sI2938
V\u61f2
sI2939
V\u6280
sI2940
V\u64a5
sI2941
V\u6772
sI2942
V\u6817
sI2943
V\u68d7
sI2944
V\u6c81
sI2945
V\u6cab
sI2946
V\u6deb
sI2947
V\u6e1b
sI2948
V\u6e44
sI2949
V\u6ed3
sI2950
V\u6f31
sI2951
V\u6fc3
sI2952
V\u7210
sI2953
V\u7463
sI2954
V\u752f
sI2955
V\u7682
sI2956
V\u7b0f
sI2957
V\u7d0a
sI2958
V\u7d3c
sI2959
V\u87a2
sI2960
V\u87fe
sI2961
V\u88dd
sI2962
V\u8aa4
sI2963
V\u8cac
sI2964
V\u9052
sI2965
V\u93ac
sI2966
V\u95a9
sI2967
V\u95ca
sI2968
V\u969c
sI2969
V\u96ce
sI2970
V\u9730
sI2971
V\u97ad
sI2972
V\u9910
sI2973
V\u9d60
sI2974
V\u4e99
sI2975
V\u4ea2
sI2976
V\u4ec0
sI2977
V\u50ad
sI2978
V\u50d1
sI2979
V\u52a3
sI2980
V\u52fa
sI2981
V\u54fa
sI2982
V\u5a11
sI2983
V\u5b51
sI2984
V\u5be4
sI2985
V\u5f01
sI2986
V\u5f2d
sI2987
V\u5f77
sI2988
V\u6063
sI2989
V\u60b5
sI2990
V\u6109
sI2991
V\u61a9
sI2992
V\u61cd
sI2993
V\u62d9
sI2994
V\u64f2
sI2995
V\u6518
sI2996
V\u66c7
sI2997
V\u6b46
sI2998
V\u6c93
sI2999
V\u6cf3
sI3000
V\u6d29
sI3001
V\u7009
sI3002
V\u718f
sI3003
V\u7457
sI3004
V\u747e
sI3005
V\u74e6
sI3006
V\u76c6
sI3007
V\u77e7
sI3008
V\u7c40
sI3009
V\u7d13
sI3010
V\u7e46
sI3011
V\u8046
sI3012
V\u8096
sI3013
V\u8343
sI3014
V\u8477
sI3015
V\u8525
sI3016
V\u89bf
sI3017
V\u8a03
sI3018
V\u8a71
sI3019
V\u8b74
sI3020
V\u914b
sI3021
V\u9444
sI3022
V\u96db
sI3023
V\u984d
sI3024
V\u985b
sI3025
V\u9a2d
sI3026
V\u9a37
sI3027
V\u9b74
sI3028
V\u4f01
sI3029
V\u4f88
sI3030
V\u4fae
sI3031
V\u50ee
sI3032
V\u5308
sI3033
V\u55e4
sI3034
V\u5889
sI3035
V\u5a1f
sI3036
V\u5b34
sI3037
V\u5ced
sI3038
V\u5ec8
sI3039
V\u5ee8
sI3040
V\u62ca
sI3041
V\u634c
sI3042
V\u655e
sI3043
V\u659b
sI3044
V\u6636
sI3045
V\u67b3
sI3046
V\u67ec
sI3047
V\u69b7
sI3048
V\u6ce1
sI3049
V\u6eaf
sI3050
V\u71c9
sI3051
V\u7426
sI3052
V\u75fe
sI3053
V\u7729
sI3054
V\u7747
sI3055
V\u7762
sI3056
V\u77db
sI3057
V\u7864
sI3058
V\u786f
sI3059
V\u7a00
sI3060
V\u7b25
sI3061
V\u7b50
sI3062
V\u7c97
sI3063
V\u7cb1
sI3064
V\u8239
sI3065
V\u82a5
sI3066
V\u82ae
sI3067
V\u82b7
sI3068
V\u82db
sI3069
V\u834f
sI3070
V\u8398
sI3071
V\u88fd
sI3072
V\u8a84
sI3073
V\u8b6c
sI3074
V\u8e94
sI3075
V\u90b1
sI3076
V\u96cb
sI3077
V\u98fd
sI3078
V\u9957
sI3079
V\u9d89
sI3080
V\u4f34
sI3081
V\u514c
sI3082
V\u5157
sI3083
V\u53df
sI3084
V\u56d1
sI3085
V\u5b4c
sI3086
V\u5b95
sI3087
V\u5ba5
sI3088
V\u5f6b
sI3089
V\u5f7f
sI3090
V\u60f2
sI3091
V\u617c
sI3092
V\u6221
sI3093
V\u6308
sI3094
V\u6434
sI3095
V\u6504
sI3096
V\u6631
sI3097
V\u6643
sI3098
V\u66fc
sI3099
V\u69ff
sI3100
V\u6ce0
sI3101
V\u6d35
sI3102
V\u6de5
sI3103
V\u6f62
sI3104
V\u6f6e
sI3105
V\u6f6f
sI3106
V\u70ad
sI3107
V\u70af
sI3108
V\u71e7
sI3109
V\u7396
sI3110
V\u7921
sI3111
V\u7950
sI3112
V\u7bb8
sI3113
V\u7d10
sI3114
V\u7db5
sI3115
V\u7e8d
sI3116
V\u8182
sI3117
V\u82fb
sI3118
V\u8702
sI3119
V\u87bd
sI3120
V\u8cb8
sI3121
V\u900b
sI3122
V\u90b3
sI3123
V\u93d1
sI3124
V\u966c
sI3125
V\u9b91
sI3126
V\u9ea5
sI3127
V\u4f0e
sI3128
V\u4fd8
sI3129
V\u532f
sI3130
V\u5384
sI3131
V\u53f1
sI3132
V\u541d
sI3133
V\u555c
sI3134
V\u56b3
sI3135
V\u57a7
sI3136
V\u5806
sI3137
V\u58d3
sI3138
V\u5e63
sI3139
V\u5e97
sI3140
V\u5ee9
sI3141
V\u632b
sI3142
V\u6372
sI3143
V\u63ed
sI3144
V\u6715
sI3145
V\u676a
sI3146
V\u68af
sI3147
V\u696b
sI3148
V\u6cf1
sI3149
V\u6daa
sI3150
V\u6ea5
sI3151
V\u70ab
sI3152
V\u72e9
sI3153
V\u73e9
sI3154
V\u7428
sI3155
V\u74de
sI3156
V\u7621
sI3157
V\u773c
sI3158
V\u777d
sI3159
V\u78ec
sI3160
V\u79be
sI3161
V\u7a70
sI3162
V\u7f86
sI3163
V\u840d
sI3164
V\u847a
sI3165
V\u8a50
sI3166
V\u8af6
sI3167
V\u8c62
sI3168
V\u8c8a
sI3169
V\u8f9c
sI3170
V\u8fa6
sI3171
V\u90dd
sI3172
V\u90fe
sI3173
V\u91aa
sI3174
V\u91d7
sI3175
V\u96d2
sI3176
V\u9d9a
sI3177
V\u9e75
sI3178
V\u9edb
sI3179
V\u4f48
sI3180
V\u5048
sI3181
V\u52d8
sI3182
V\u5366
sI3183
V\u5588
sI3184
V\u573b
sI3185
V\u57d2
sI3186
V\u5ac2
sI3187
V\u5b09
sI3188
V\u5dcb
sI3189
V\u5fd9
sI3190
V\u60cb
sI3191
V\u610d
sI3192
V\u61fe
sI3193
V\u636b
sI3194
V\u6590
sI3195
V\u6591
sI3196
V\u6634
sI3197
V\u6a35
sI3198
V\u6bba
sI3199
V\u6d19
sI3200
V\u6d2e
sI3201
V\u6d3b
sI3202
V\u6fa1
sI3203
V\u7043
sI3204
V\u72e1
sI3205
V\u745b
sI3206
V\u7688
sI3207
V\u77bf
sI3208
V\u79ba
sI3209
V\u7a97
sI3210
V\u7cdf
sI3211
V\u7fd5
sI3212
V\u8017
sI3213
V\u8105
sI3214
V\u8106
sI3215
V\u81c6
sI3216
V\u820c
sI3217
V\u87e0
sI3218
V\u8832
sI3219
V\u88d2
sI3220
V\u88f9
sI3221
V\u8b6f
sI3222
V\u8c7a
sI3223
V\u8d0f
sI3224
V\u8f03
sI3225
V\u9019
sI3226
V\u901e
sI3227
V\u9068
sI3228
V\u90f5
sI3229
V\u9116
sI3230
V\u9291
sI3231
V\u994c
sI3232
V\u99f1
sI3233
V\u9a44
sI3234
V\u9c25
sI3235
V\u9dfa
sI3236
V\u9f3b
sI3237
V\u50ed
sI3238
V\u5420
sI3239
V\u54fd
sI3240
V\u5589
sI3241
V\u57a2
sI3242
V\u57e0
sI3243
V\u5acc
sI3244
V\u5ae0
sI3245
V\u5c79
sI3246
V\u5cf6
sI3247
V\u5d1b
sI3248
V\u5ec4
sI3249
V\u5f1b
sI3250
V\u602a
sI3251
V\u61ac
sI3252
V\u6241
sI3253
V\u646d
sI3254
V\u655d
sI3255
V\u6674
sI3256
V\u6696
sI3257
V\u669d
sI3258
V\u66b9
sI3259
V\u6874
sI3260
V\u690e
sI3261
V\u69ad
sI3262
V\u69e7
sI3263
V\u6b04
sI3264
V\u6bae
sI3265
V\u6d0c
sI3266
V\u6f78
sI3267
V\u6fec
sI3268
V\u7076
sI3269
V\u7085
sI3270
V\u70ac
sI3271
V\u71d2
sI3272
V\u72a7
sI3273
V\u73c8
sI3274
V\u74a8
sI3275
V\u7a20
sI3276
V\u7ce0
sI3277
V\u7e6a
sI3278
V\u8160
sI3279
V\u8392
sI3280
V\u8446
sI3281
V\u846d
sI3282
V\u8548
sI3283
V\u8556
sI3284
V\u86fb
sI3285
V\u86fe
sI3286
V\u8836
sI3287
V\u89ac
sI3288
V\u8a6d
sI3289
V\u8b17
sI3290
V\u8c94
sI3291
V\u8efb
sI3292
V\u912f
sI3293
V\u9146
sI3294
V\u9375
sI3295
V\u93a3
sI3296
V\u95bc
sI3297
V\u95d0
sI3298
V\u973d
sI3299
V\u97ab
sI3300
V\u9a2e
sI3301
V\u9a4a
sI3302
V\u9eb4
sI3303
V\u9ecd
sI3304
V\u9ee0
sI3305
V\u4ef5
sI3306
V\u4f54
sI3307
V\u4f75
sI3308
V\u50fb
sI3309
V\u5147
sI3310
V\u5191
sI3311
V\u51bd
sI3312
V\u5208
sI3313
V\u5237
sI3314
V\u524e
sI3315
V\u53e8
sI3316
V\u559f
sI3317
V\u560f
sI3318
V\u56da
sI3319
V\u5835
sI3320
V\u59ae
sI3321
V\u5b0c
sI3322
V\u5d6b
sI3323
V\u5e43
sI3324
V\u5edb
sI3325
V\u5f56
sI3326
V\u634d
sI3327
V\u6387
sI3328
V\u64b2
sI3329
V\u66b1
sI3330
V\u674f
sI3331
V\u67d8
sI3332
V\u681d
sI3333
V\u68a2
sI3334
V\u6905
sI3335
V\u69cd
sI3336
V\u6b50
sI3337
V\u6d93
sI3338
V\u6dfb
sI3339
V\u6e34
sI3340
V\u6f7a
sI3341
V\u7130
sI3342
V\u7152
sI3343
V\u71fc
sI3344
V\u720d
sI3345
V\u72f9
sI3346
V\u741a
sI3347
V\u755c
sI3348
V\u766d
sI3349
V\u77ac
sI3350
V\u77bc
sI3351
V\u78ad
sI3352
V\u7a39
sI3353
V\u7aaa
sI3354
V\u7b4c
sI3355
V\u7c23
sI3356
V\u7cdc
sI3357
V\u7d07
sI3358
V\u7d09
sI3359
V\u7d61
sI3360
V\u7e1d
sI3361
V\u7e62
sI3362
V\u7e79
sI3363
V\u8018
sI3364
V\u8026
sI3365
V\u8028
sI3366
V\u8108
sI3367
V\u83c1
sI3368
V\u84c1
sI3369
V\u84c9
sI3370
V\u859c
sI3371
V\u888d
sI3372
V\u88ca
sI3373
V\u89af
sI3374
V\u8a0a
sI3375
V\u8b14
sI3376
V\u8b4f
sI3377
V\u8d04
sI3378
V\u8dcb
sI3379
V\u8ddd
sI3380
V\u8e1e
sI3381
V\u8e81
sI3382
V\u90af
sI3383
V\u90eb
sI3384
V\u90ef
sI3385
V\u9131
sI3386
V\u947d
sI3387
V\u978d
sI3388
V\u98ef
sI3389
V\u9c32
sI3390
V\u9ef7
sI3391
V\u502a
sI3392
V\u5197
sI3393
V\u522a
sI3394
V\u5438
sI3395
V\u5480
sI3396
V\u557b
sI3397
V\u563f
sI3398
V\u581e
sI3399
V\u5858
sI3400
V\u5969
sI3401
V\u59be
sI3402
V\u5b0b
sI3403
V\u5c68
sI3404
V\u5e19
sI3405
V\u5fff
sI3406
V\u600f
sI3407
V\u608d
sI3408
V\u6092
sI3409
V\u6349
sI3410
V\u64d4
sI3411
V\u64ef
sI3412
V\u6583
sI3413
V\u65a4
sI3414
V\u6628
sI3415
V\u6676
sI3416
V\u6840
sI3417
V\u68a8
sI3418
V\u68cb
sI3419
V\u68fc
sI3420
V\u6adf
sI3421
V\u6b67
sI3422
V\u6b9b
sI3423
V\u6c61
sI3424
V\u6dec
sI3425
V\u6f15
sI3426
V\u6f3e
sI3427
V\u6fb3
sI3428
V\u6fe0
sI3429
V\u7018
sI3430
V\u714e
sI3431
V\u716c
sI3432
V\u725d
sI3433
V\u73a2
sI3434
V\u74a9
sI3435
V\u7634
sI3436
V\u7720
sI3437
V\u7768
sI3438
V\u79df
sI3439
V\u7a3c
sI3440
V\u7ab6
sI3441
V\u7afa
sI3442
V\u7b1b
sI3443
V\u7b4d
sI3444
V\u7c37
sI3445
V\u7c69
sI3446
V\u7d46
sI3447
V\u7e1b
sI3448
V\u7e39
sI3449
V\u7f36
sI3450
V\u7f69
sI3451
V\u8299
sI3452
V\u82b8
sI3453
V\u83c0
sI3454
V\u83f1
sI3455
V\u83fd
sI3456
V\u8475
sI3457
V\u87bb
sI3458
V\u891a
sI3459
V\u8a1d
sI3460
V\u8ce3
sI3461
V\u8dea
sI3462
V\u9090
sI3463
V\u9132
sI3464
V\u9179
sI3465
V\u9189
sI3466
V\u91ae
sI3467
V\u95b6
sI3468
V\u9698
sI3469
V\u9708
sI3470
V\u9713
sI3471
V\u9801
sI3472
V\u991a
sI3473
V\u9b3b
sI3474
V\u9d1f
sI3475
V\u9efd
sI3476
V\u4f3a
sI3477
V\u4f5e
sI3478
V\u5028
sI3479
V\u527d
sI3480
V\u5349
sI3481
V\u5398
sI3482
V\u543b
sI3483
V\u564e
sI3484
V\u577c
sI3485
V\u57f9
sI3486
V\u5824
sI3487
V\u5950
sI3488
V\u59a8
sI3489
V\u5ac9
sI3490
V\u5afb
sI3491
V\u5b21
sI3492
V\u5b8c
sI3493
V\u5cd2
sI3494
V\u5e4c
sI3495
V\u5e62
sI3496
V\u604d
sI3497
V\u6147
sI3498
V\u618e
sI3499
V\u627c
sI3500
V\u6292
sI3501
V\u634e
sI3502
V\u63a0
sI3503
V\u63c4
sI3504
V\u652c
sI3505
V\u6641
sI3506
V\u668c
sI3507
V\u682a
sI3508
V\u683d
sI3509
V\u6fd5
sI3510
V\u72d7
sI3511
V\u73ee
sI3512
V\u744b
sI3513
V\u74cc
sI3514
V\u7511
sI3515
V\u75b5
sI3516
V\u7625
sI3517
V\u792b
sI3518
V\u7a3f
sI3519
V\u7afd
sI3520
V\u7c27
sI3521
V\u7c95
sI3522
V\u7ca2
sI3523
V\u7d17
sI3524
V\u7e36
sI3525
V\u7e7d
sI3526
V\u800b
sI3527
V\u8043
sI3528
V\u808c
sI3529
V\u826e
sI3530
V\u82d4
sI3531
V\u84d0
sI3532
V\u85dc
sI3533
V\u86a9
sI3534
V\u8822
sI3535
V\u89da
sI3536
V\u8a36
sI3537
V\u8a61
sI3538
V\u8a70
sI3539
V\u8ac2
sI3540
V\u8b92
sI3541
V\u8c78
sI3542
V\u8caf
sI3543
V\u8cd1
sI3544
V\u8dd7
sI3545
V\u8de3
sI3546
V\u8e44
sI3547
V\u8e49
sI3548
V\u8ff8
sI3549
V\u9011
sI3550
V\u90be
sI3551
V\u90d7
sI3552
V\u9234
sI3553
V\u9414
sI3554
V\u95bd
sI3555
V\u9837
sI3556
V\u9998
sI3557
V\u99db
sI3558
V\u9da9
sI3559
V\u4e10
sI3560
V\u525d
sI3561
V\u5261
sI3562
V\u5484
sI3563
V\u56bc
sI3564
V\u577b
sI3565
V\u578c
sI3566
V\u5807
sI3567
V\u5993
sI3568
V\u5a62
sI3569
V\u5b65
sI3570
V\u5b84
sI3571
V\u5d06
sI3572
V\u5da7
sI3573
V\u5e16
sI3574
V\u5e58
sI3575
V\u5f29
sI3576
V\u62c6
sI3577
V\u62ed
sI3578
V\u6426
sI3579
V\u6458
sI3580
V\u65f1
sI3581
V\u6603
sI3582
V\u6615
sI3583
V\u67dd
sI3584
V\u68f9
sI3585
V\u693d
sI3586
V\u6a23
sI3587
V\u6bd6
sI3588
V\u6ef4
sI3589
V\u6f2c
sI3590
V\u6f7c
sI3591
V\u6f8d
sI3592
V\u6ffa
sI3593
V\u7058
sI3594
V\u71e0
sI3595
V\u7272
sI3596
V\u73c2
sI3597
V\u73d9
sI3598
V\u742a
sI3599
V\u74bf
sI3600
V\u74cf
sI3601
V\u750c
sI3602
V\u75ab
sI3603
V\u76a4
sI3604
V\u76f2
sI3605
V\u7725
sI3606
V\u7a62
sI3607
V\u7aff
sI3608
V\u7c5f
sI3609
V\u7e5a
sI3610
V\u7f3d
sI3611
V\u7fc5
sI3612
V\u81bb
sI3613
V\u828a
sI3614
V\u8335
sI3615
V\u8466
sI3616
V\u85ff
sI3617
V\u8605
sI3618
V\u867a
sI3619
V\u8703
sI3620
V\u879f
sI3621
V\u8805
sI3622
V\u8816
sI3623
V\u8a87
sI3624
V\u8b8e
sI3625
V\u8b96
sI3626
V\u8cd2
sI3627
V\u8cda
sI3628
V\u8d66
sI3629
V\u8dce
sI3630
V\u8ecb
sI3631
V\u8f54
sI3632
V\u8fc2
sI3633
V\u8fe6
sI3634
V\u90db
sI3635
V\u9122
sI3636
V\u914f
sI3637
V\u91f5
sI3638
V\u9296
sI3639
V\u92ea
sI3640
V\u9319
sI3641
V\u95cc
sI3642
V\u968d
sI3643
V\u9706
sI3644
V\u9773
sI3645
V\u9821
sI3646
V\u9838
sI3647
V\u98e7
sI3648
V\u4f36
sI3649
V\u4f5a
sI3650
V\u4f6f
sI3651
V\u4f76
sI3652
V\u50d6
sI3653
V\u5140
sI3654
V\u51cd
sI3655
V\u527f
sI3656
V\u52be
sI3657
V\u53e1
sI3658
V\u53f5
sI3659
V\u542e
sI3660
V\u5533
sI3661
V\u5598
sI3662
V\u559d
sI3663
V\u55f7
sI3664
V\u564d
sI3665
V\u56c0
sI3666
V\u5740
sI3667
V\u5761
sI3668
V\u5958
sI3669
V\u5a55
sI3670
V\u5db8
sI3671
V\u5dd4
sI3672
V\u5e54
sI3673
V\u5e80
sI3674
V\u5eda
sI3675
V\u600d
sI3676
V\u609b
sI3677
V\u60da
sI3678
V\u60f4
sI3679
V\u618a
sI3680
V\u61be
sI3681
V\u61cc
sI3682
V\u6229
sI3683
V\u6284
sI3684
V\u6384
sI3685
V\u6478
sI3686
V\u65a1
sI3687
V\u684e
sI3688
V\u688f
sI3689
V\u68e7
sI3690
V\u6a17
sI3691
V\u6a50
sI3692
V\u6ad3
sI3693
V\u6baa
sI3694
V\u6c10
sI3695
V\u6c69
sI3696
V\u6d97
sI3697
V\u6ebd
sI3698
V\u6f35
sI3699
V\u6f80
sI3700
V\u6fb6
sI3701
V\u712f
sI3702
V\u71c1
sI3703
V\u7228
sI3704
V\u7281
sI3705
V\u7377
sI3706
V\u7480
sI3707
V\u74b5
sI3708
V\u74da
sI3709
V\u74f4
sI3710
V\u769a
sI3711
V\u77d7
sI3712
V\u7802
sI3713
V\u782d
sI3714
V\u784c
sI3715
V\u78e7
sI3716
V\u7919
sI3717
V\u7947
sI3718
V\u795b
sI3719
V\u7968
sI3720
V\u7b08
sI3721
V\u7c3e
sI3722
V\u7c92
sI3723
V\u7d02
sI3724
V\u7d21
sI3725
V\u7d3a
sI3726
V\u7d3f
sI3727
V\u7dc4
sI3728
V\u7e2b
sI3729
V\u7e2e
sI3730
V\u7e52
sI3731
V\u7fb9
sI3732
V\u8084
sI3733
V\u808b
sI3734
V\u80af
sI3735
V\u8150
sI3736
V\u830c
sI3737
V\u8336
sI3738
V\u83cc
sI3739
V\u8482
sI3740
V\u868c
sI3741
V\u8966
sI3742
V\u8993
sI3743
V\u8a52
sI3744
V\u8af3
sI3745
V\u8b56
sI3746
V\u8cc4
sI3747
V\u8dba
sI3748
V\u8dcc
sI3749
V\u8dd6
sI3750
V\u8fd3
sI3751
V\u9021
sI3752
V\u906e
sI3753
V\u9187
sI3754
V\u9191
sI3755
V\u9396
sI3756
V\u93a7
sI3757
V\u93b0
sI3758
V\u95bf
sI3759
V\u9658
sI3760
V\u9697
sI3761
V\u9768
sI3762
V\u97d9
sI3763
V\u9859
sI3764
V\u9b1a
sI3765
V\u9cf6
sI3766
V\u9d5d
sI3767
V\u9ecc
sI3768
V\u9f95
sI3769
V\u4ec4
sI3770
V\u4f70
sI3771
V\u4f96
sI3772
V\u4fdc
sI3773
V\u5106
sI3774
V\u51aa
sI3775
V\u5238
sI3776
V\u5243
sI3777
V\u5283
sI3778
V\u531d
sI3779
V\u5507
sI3780
V\u5599
sI3781
V\u5653
sI3782
V\u5674
sI3783
V\u5709
sI3784
V\u5821
sI3785
V\u584f
sI3786
V\u5879
sI3787
V\u587e
sI3788
V\u588a
sI3789
V\u5992
sI3790
V\u59a4
sI3791
V\u5b71
sI3792
V\u5d22
sI3793
V\u5d82
sI3794
V\u5dbc
sI3795
V\u5df9
sI3796
V\u6016
sI3797
V\u6035
sI3798
V\u609a
sI3799
V\u60f6
sI3800
V\u6115
sI3801
V\u61fa
sI3802
V\u6289
sI3803
V\u6389
sI3804
V\u638e
sI3805
V\u63d2
sI3806
V\u6487
sI3807
V\u64bf
sI3808
V\u659f
sI3809
V\u65ab
sI3810
V\u6688
sI3811
V\u6727
sI3812
V\u68ad
sI3813
V\u6add
sI3814
V\u6bf3
sI3815
V\u6cee
sI3816
V\u6db8
sI3817
V\u6e5c
sI3818
V\u6e5f
sI3819
V\u6ea7
sI3820
V\u6f86
sI3821
V\u7028
sI3822
V\u7192
sI3823
V\u71b1
sI3824
V\u71c3
sI3825
V\u71ce
sI3826
V\u72f8
sI3827
V\u731c
sI3828
V\u7360
sI3829
V\u736b
sI3830
V\u73bb
sI3831
V\u73e3
sI3832
V\u73fd
sI3833
V\u74a0
sI3834
V\u74f6
sI3835
V\u7526
sI3836
V\u754e
sI3837
V\u7566
sI3838
V\u780c
sI3839
V\u7931
sI3840
V\u7995
sI3841
V\u79d5
sI3842
V\u7a61
sI3843
V\u7b4b
sI3844
V\u7b4f
sI3845
V\u7b8f
sI3846
V\u7c6c
sI3847
V\u7ca5
sI3848
V\u7d32
sI3849
V\u7e7e
sI3850
V\u8098
sI3851
V\u80ba
sI3852
V\u81ed
sI3853
V\u81fc
sI3854
V\u81fe
sI3855
V\u82e1
sI3856
V\u8347
sI3857
V\u8354
sI3858
V\u839e
sI3859
V\u8431
sI3860
V\u86a4
sI3861
V\u8907
sI3862
V\u8a58
sI3863
V\u8a8d
sI3864
V\u8adb
sI3865
V\u8b4e
sI3866
V\u8b9e
sI3867
V\u8cb2
sI3868
V\u8e59
sI3869
V\u8f1c
sI3870
V\u8f3b
sI3871
V\u900f
sI3872
V\u908f
sI3873
V\u9097
sI3874
V\u90c7
sI3875
V\u915e
sI3876
V\u9163
sI3877
V\u916a
sI3878
V\u923f
sI3879
V\u9470
sI3880
V\u958e
sI3881
V\u9716
sI3882
V\u9811
sI3883
V\u9912
sI3884
V\u9b06
sI3885
V\u9b90
sI3886
V\u9d26
sI3887
V\u9e92
sI3888
V\u9ebc
sI3889
V\u4e69
sI3890
V\u4edf
sI3891
V\u4ef6
sI3892
V\u4efd
sI3893
V\u4eff
sI3894
V\u4f7e
sI3895
V\u4f97
sI3896
V\u50e6
sI3897
V\u50f5
sI3898
V\u511f
sI3899
V\u515c
sI3900
V\u5201
sI3901
V\u5254
sI3902
V\u52d7
sI3903
V\u5412
sI3904
V\u5492
sI3905
V\u5538
sI3906
V\u572f
sI3907
V\u5793
sI3908
V\u57a0
sI3909
V\u57f4
sI3910
V\u5925
sI3911
V\u5a6d
sI3912
V\u5d0e
sI3913
V\u5d24
sI3914
V\u5d6c
sI3915
V\u5d87
sI3916
V\u5e96
sI3917
V\u5ea5
sI3918
V\u5ed6
sI3919
V\u5edd
sI3920
V\u5fee
sI3921
V\u600a
sI3922
V\u602f
sI3923
V\u6067
sI3924
V\u6096
sI3925
V\u60f1
sI3926
V\u614c
sI3927
V\u6192
sI3928
V\u619d
sI3929
V\u61a7
sI3930
V\u625b
sI3931
V\u6279
sI3932
V\u62f3
sI3933
V\u6355
sI3934
V\u63ac
sI3935
V\u63e9
sI3936
V\u646f
sI3937
V\u6473
sI3938
V\u64d0
sI3939
V\u65f0
sI3940
V\u66d6
sI3941
V\u66db
sI3942
V\u68d2
sI3943
V\u69b1
sI3944
V\u6af3
sI3945
V\u6afb
sI3946
V\u6b49
sI3947
V\u6bcb
sI3948
V\u6c3e
sI3949
V\u6c40
sI3950
V\u6c86
sI3951
V\u6d27
sI3952
V\u6d94
sI3953
V\u6e26
sI3954
V\u6eb1
sI3955
V\u6f2d
sI3956
V\u6f32
sI3957
V\u7023
sI3958
V\u7131
sI3959
V\u715c
sI3960
V\u717d
sI3961
V\u7261
sI3962
V\u728d
sI3963
V\u72c1
sI3964
V\u72d9
sI3965
V\u736f
sI3966
V\u73ca
sI3967
V\u7486
sI3968
V\u7583
sI3969
V\u7626
sI3970
V\u76c2
sI3971
V\u76ce
sI3972
V\u76f1
sI3973
V\u76fc
sI3974
V\u7708
sI3975
V\u7719
sI3976
V\u771a
sI3977
V\u7738
sI3978
V\u7897
sI3979
V\u797a
sI3980
V\u79e3
sI3981
V\u79e4
sI3982
V\u7a92
sI3983
V\u7a98
sI3984
V\u7b71
sI3985
V\u7b72
sI3986
V\u7b8b
sI3987
V\u7be1
sI3988
V\u7c5c
sI3989
V\u7cc5
sI3990
V\u7d83
sI3991
V\u7da3
sI3992
V\u7dca
sI3993
V\u7dfb
sI3994
V\u7e2d
sI3995
V\u7e73
sI3996
V\u7e9b
sI3997
V\u7fbf
sI3998
V\u80c3
sI3999
V\u8129
sI4000
V\u813e
sI4001
V\u814e
sI4002
V\u8151
sI4003
V\u8200
sI4004
V\u82fe
sI4005
V\u8304
sI4006
V\u8350
sI4007
V\u83a9
sI4008
V\u8401
sI4009
V\u8546
sI4010
V\u8558
sI4011
V\u8627
sI4012
V\u86e4
sI4013
V\u8776
sI4014
V\u8892
sI4015
V\u88a4
sI4016
V\u88d9
sI4017
V\u8925
sI4018
V\u896a
sI4019
V\u89a6
sI4020
V\u8a10
sI4021
V\u8a3e
sI4022
V\u8afa
sI4023
V\u8ca9
sI4024
V\u8d84
sI4025
V\u8dec
sI4026
V\u8e0f
sI4027
V\u8e4c
sI4028
V\u9017
sI4029
V\u902f
sI4030
V\u90dc
sI4031
V\u9123
sI4032
V\u9136
sI4033
V\u9266
sI4034
V\u92e4
sI4035
V\u93df
sI4036
V\u9583
sI4037
V\u95de
sI4038
V\u9641
sI4039
V\u980f
sI4040
V\u98f4
sI4041
V\u991e
sI4042
V\u993c
sI4043
V\u9949
sI4044
V\u99d1
sI4045
V\u9afb
sI4046
V\u9b0d
sI4047
V\u9d09
sI4048
V\u9dbb
sI4049
V\u9df2
sI4050
V\u9e9d
sI4051
V\u4f91
sI4052
V\u5011
sI4053
V\u50b5
sI4054
V\u5107
sI4055
V\u524b
sI4056
V\u5291
sI4057
V\u52f0
sI4058
V\u52fb
sI4059
V\u54b3
sI4060
V\u54bc
sI4061
V\u55c7
sI4062
V\u55d1
sI4063
V\u5629
sI4064
V\u5704
sI4065
V\u571c
sI4066
V\u5773
sI4067
V\u5862
sI4068
V\u58a9
sI4069
V\u58be
sI4070
V\u59af
sI4071
V\u5a20
sI4072
V\u5abc
sI4073
V\u5ae3
sI4074
V\u5b83
sI4075
V\u5b93
sI4076
V\u5c38
sI4077
V\u5ca9
sI4078
V\u5d27
sI4079
V\u5e11
sI4080
V\u5e45
sI4081
V\u5e5f
sI4082
V\u5e6c
sI4083
V\u5ef3
sI4084
V\u5f57
sI4085
V\u5fa8
sI4086
V\u5feb
sI4087
V\u605a
sI4088
V\u60b1
sI4089
V\u60d8
sI4090
V\u6114
sI4091
V\u6162
sI4092
V\u61e3
sI4093
V\u61f5
sI4094
V\u6266
sI4095
V\u628a
sI4096
V\u62c9
sI4097
V\u62fd
sI4098
V\u63c0
sI4099
V\u63e3
sI4100
V\u63ea
sI4101
V\u64bb
sI4102
V\u64be
sI4103
V\u6549
sI4104
V\u65fb
sI4105
V\u6609
sI4106
V\u6661
sI4107
V\u66a0
sI4108
V\u66ec
sI4109
V\u6735
sI4110
V\u67f0
sI4111
V\u6816
sI4112
V\u6877
sI4113
V\u6883
sI4114
V\u68b0
sI4115
V\u695e
sI4116
V\u6aaf
sI4117
V\u6af1
sI4118
V\u6b20
sI4119
V\u6bbc
sI4120
V\u6c70
sI4121
V\u6c85
sI4122
V\u6cb1
sI4123
V\u6cda
sI4124
V\u6d04
sI4125
V\u6d33
sI4126
V\u6d7c
sI4127
V\u6dd9
sI4128
V\u6ec2
sI4129
V\u6eec
sI4130
V\u6ef8
sI4131
V\u6ef9
sI4132
V\u6f66
sI4133
V\u6f8c
sI4134
V\u6fdb
sI4135
V\u7015
sI4136
V\u7032
sI4137
V\u7078
sI4138
V\u7099
sI4139
V\u71b9
sI4140
V\u71fe
sI4141
V\u7206
sI4142
V\u7325
sI4143
V\u73a8
sI4144
V\u73ab
sI4145
V\u73b2
sI4146
V\u7425
sI4147
V\u7481
sI4148
V\u7498
sI4149
V\u74a1
sI4150
V\u74e0
sI4151
V\u74e2
sI4152
V\u755a
sI4153
V\u75bd
sI4154
V\u75d5
sI4155
V\u75ff
sI4156
V\u77b5
sI4157
V\u78c5
sI4158
V\u7a57
sI4159
V\u7aaf
sI4160
V\u7bda
sI4161
V\u7c00
sI4162
V\u7cf2
sI4163
V\u7d1c
sI4164
V\u7d86
sI4165
V\u7d88
sI4166
V\u7da6
sI4167
V\u7e32
sI4168
V\u7e35
sI4169
V\u7fc3
sI4170
V\u8004
sI4171
V\u80d0
sI4172
V\u810a
sI4173
V\u812f
sI4174
V\u8146
sI4175
V\u814b
sI4176
V\u8166
sI4177
V\u8173
sI4178
V\u8201
sI4179
V\u8264
sI4180
V\u826b
sI4181
V\u829f
sI4182
V\u8317
sI4183
V\u8328
sI4184
V\u8338
sI4185
V\u8396
sI4186
V\u8407
sI4187
V\u84ca
sI4188
V\u84fd
sI4189
V\u8587
sI4190
V\u85ce
sI4191
V\u871c
sI4192
V\u8755
sI4193
V\u8765
sI4194
V\u87ad
sI4195
V\u87ea
sI4196
V\u8821
sI4197
V\u8888
sI4198
V\u88b7
sI4199
V\u88df
sI4200
V\u890a
sI4201
V\u8956
sI4202
V\u8998
sI4203
V\u8a3a
sI4204
V\u8a41
sI4205
V\u8acd
sI4206
V\u8c85
sI4207
V\u8cc2
sI4208
V\u8cc3
sI4209
V\u8d07
sI4210
V\u8d6d
sI4211
V\u8d91
sI4212
V\u8dcf
sI4213
V\u8e40
sI4214
V\u8e42
sI4215
V\u8e72
sI4216
V\u8e76
sI4217
V\u8e8a
sI4218
V\u8e91
sI4219
V\u8efa
sI4220
V\u8f62
sI4221
V\u90a1
sI4222
V\u90b0
sI4223
V\u9192
sI4224
V\u919e
sI4225
V\u91e7
sI4226
V\u9215
sI4227
V\u927a
sI4228
V\u92c8
sI4229
V\u932e
sI4230
V\u9347
sI4231
V\u93de
sI4232
V\u95a4
sI4233
V\u95b9
sI4234
V\u9640
sI4235
V\u96bb
sI4236
V\u96e9
sI4237
V\u96f9
sI4238
V\u973e
sI4239
V\u9785
sI4240
V\u9830
sI4241
V\u98ea
sI4242
V\u98eb
sI4243
V\u9954
sI4244
V\u9a36
sI4245
V\u9a62
sI4246
V\u9adf
sI4247
V\u9ae1
sI4248
V\u9aed
sI4249
V\u9aef
sI4250
V\u9b54
sI4251
V\u9b92
sI4252
V\u9be2
sI4253
V\u9be4
sI4254
V\u9c49
sI4255
V\u9d28
sI4256
V\u9dc2
sI4257
V\u9dd9
sI4258
V\u9def
sI4259
V\u9e88
sI4260
V\u9e8b
sI4261
V\u9f37
sI4262
V\u4e47
sI4263
V\u4ec6
sI4264
V\u4f30
sI4265
V\u4f43
sI4266
V\u4fb9
sI4267
V\u4fcc
sI4268
V\u4fdb
sI4269
V\u5016
sI4270
V\u5021
sI4271
V\u5023
sI4272
V\u5030
sI4273
V\u5075
sI4274
V\u50b4
sI4275
V\u50e8
sI4276
V\u510b
sI4277
V\u5216
sI4278
V\u522e
sI4279
V\u5233
sI4280
V\u524c
sI4281
V\u525c
sI4282
V\u5269
sI4283
V\u52e3
sI4284
V\u532d
sI4285
V\u536e
sI4286
V\u5378
sI4287
V\u53ed
sI4288
V\u542d
sI4289
V\u543c
sI4290
V\u547b
sI4291
V\u54ab
sI4292
V\u54ac
sI4293
V\u54c2
sI4294
V\u54ee
sI4295
V\u550f
sI4296
V\u552a
sI4297
V\u552e
sI4298
V\u5544
sI4299
V\u55e5
sI4300
V\u55fd
sI4301
V\u5669
sI4302
V\u5672
sI4303
V\u5687
sI4304
V\u56ae
sI4305
V\u56b6
sI4306
V\u56f9
sI4307
V\u574c
sI4308
V\u5751
sI4309
V\u576b
sI4310
V\u57d4
sI4311
V\u5800
sI4312
V\u580b
sI4313
V\u5830
sI4314
V\u586c
sI4315
V\u5910
sI4316
V\u59a5
sI4317
V\u59d0
sI4318
V\u59f9
sI4319
V\u5a0c
sI4320
V\u5a1c
sI4321
V\u5a6a
sI4322
V\u5aa7
sI4323
V\u5ad7
sI4324
V\u5ae6
sI4325
V\u5b19
sI4326
V\u5cea
sI4327
V\u5d6f
sI4328
V\u5d99
sI4329
V\u5e06
sI4330
V\u5e14
sI4331
V\u5e5b
sI4332
V\u5ed1
sI4333
V\u5ed9
sI4334
V\u5f40
sI4335
V\u5f67
sI4336
V\u5fad
sI4337
V\u5fe1
sI4338
V\u6015
sI4339
V\u606b
sI4340
V\u6083
sI4341
V\u608a
sI4342
V\u60b8
sI4343
V\u60f0
sI4344
V\u6100
sI4345
V\u610e
sI4346
V\u6199
sI4347
V\u61df
sI4348
V\u61e6
sI4349
V\u6215
sI4350
V\u6254
sI4351
V\u62c4
sI4352
V\u6311
sI4353
V\u6398
sI4354
V\u641e
sI4355
V\u6479
sI4356
V\u6499
sI4357
V\u649d
sI4358
V\u64ce
sI4359
V\u64e0
sI4360
V\u6509
sI4361
V\u652a
sI4362
V\u6572
sI4363
V\u65d6
sI4364
V\u65fa
sI4365
V\u6623
sI4366
V\u6657
sI4367
V\u6695
sI4368
V\u66d2
sI4369
V\u6710
sI4370
V\u67d9
sI4371
V\u67de
sI4372
V\u67e2
sI4373
V\u67e5
sI4374
V\u67f5
sI4375
V\u6838
sI4376
V\u6854
sI4377
V\u687f
sI4378
V\u696e
sI4379
V\u69ce
sI4380
V\u69ed
sI4381
V\u6a05
sI4382
V\u6a1f
sI4383
V\u6b39
sI4384
V\u6b43
sI4385
V\u6b8d
sI4386
V\u6bad
sI4387
V\u6bb3
sI4388
V\u6bc6
sI4389
V\u6c08
sI4390
V\u6c8c
sI4391
V\u6cb2
sI4392
V\u6cbd
sI4393
V\u6d2b
sI4394
V\u6dc5
sI4395
V\u6dd8
sI4396
V\u6de4
sI4397
V\u6de6
sI4398
V\u6e2b
sI4399
V\u6e54
sI4400
V\u6e89
sI4401
V\u6eb5
sI4402
V\u6eb6
sI4403
V\u6ec7
sI4404
V\u6fae
sI4405
V\u6fc6
sI4406
V\u700f
sI4407
V\u701f
sI4408
V\u70b7
sI4409
V\u7168
sI4410
V\u716e
sI4411
V\u71a0
sI4412
V\u72f4
sI4413
V\u731d
sI4414
V\u73ad
sI4415
V\u73cf
sI4416
V\u7468
sI4417
V\u74b2
sI4418
V\u74ba
sI4419
V\u74d8
sI4420
V\u750d
sI4421
V\u7515
sI4422
V\u7540
sI4423
V\u755b
sI4424
V\u75ac
sI4425
V\u75c7
sI4426
V\u75cd
sI4427
V\u75e2
sI4428
V\u7610
sI4429
V\u7649
sI4430
V\u7656
sI4431
V\u7661
sI4432
V\u7662
sI4433
V\u7670
sI4434
V\u7718
sI4435
V\u776b
sI4436
V\u77aa
sI4437
V\u77bd
sI4438
V\u788c
sI4439
V\u78c1
sI4440
V\u78f4
sI4441
V\u7953
sI4442
V\u79b3
sI4443
V\u79bf
sI4444
V\u7a17
sI4445
V\u7a3b
sI4446
V\u7a84
sI4447
V\u7aa0
sI4448
V\u7aac
sI4449
V\u7b52
sI4450
V\u7b65
sI4451
V\u7c0b
sI4452
V\u7c72
sI4453
V\u7cca
sI4454
V\u7cde
sI4455
V\u7cf4
sI4456
V\u7cf8
sI4457
V\u7d0b
sI4458
V\u7d9d
sI4459
V\u7de1
sI4460
V\u7de6
sI4461
V\u7df7
sI4462
V\u7e6d
sI4463
V\u7e81
sI4464
V\u7f9d
sI4465
V\u7fe1
sI4466
V\u8010
sI4467
V\u8012
sI4468
V\u8052
sI4469
V\u80dd
sI4470
V\u80de
sI4471
V\u80e8
sI4472
V\u8155
sI4473
V\u8188
sI4474
V\u81c9
sI4475
V\u81ca
sI4476
V\u81fa
sI4477
V\u8210
sI4478
V\u8221
sI4479
V\u8233
sI4480
V\u828d
sI4481
V\u82b0
sI4482
V\u8351
sI4483
V\u838e
sI4484
V\u83a2
sI4485
V\u8411
sI4486
V\u84af
sI4487
V\u8562
sI4488
V\u8588
sI4489
V\u8591
sI4490
V\u85d5
sI4491
V\u863a
sI4492
V\u8729
sI4493
V\u875f
sI4494
V\u8763
sI4495
V\u87ca
sI4496
V\u87e3
sI4497
V\u87f9
sI4498
V\u8806
sI4499
V\u8844
sI4500
V\u8943
sI4501
V\u896f
sI4502
V\u89a1
sI4503
V\u89d4
sI4504
V\u89d6
sI4505
V\u8a22
sI4506
V\u8a3b
sI4507
V\u8a3c
sI4508
V\u8a9a
sI4509
V\u8ab6
sI4510
V\u8acf
sI4511
V\u8ad7
sI4512
V\u8ae0
sI4513
V\u8ae1
sI4514
V\u8afc
sI4515
V\u8b04
sI4516
V\u8b54
sI4517
V\u8c93
sI4518
V\u8cfc
sI4519
V\u8ddb
sI4520
V\u8df3
sI4521
V\u8e1d
sI4522
V\u8e23
sI4523
V\u8e7a
sI4524
V\u8e87
sI4525
V\u8e93
sI4526
V\u8e95
sI4527
V\u8eaa
sI4528
V\u8edf
sI4529
V\u8f33
sI4530
V\u8f5f
sI4531
V\u8fb6
sI4532
V\u8fd5
sI4533
V\u902d
sI4534
V\u9104
sI4535
V\u9118
sI4536
V\u911e
sI4537
V\u9148
sI4538
V\u914e
sI4539
V\u9162
sI4540
V\u919c
sI4541
V\u91d0
sI4542
V\u920d
sI4543
V\u9237
sI4544
V\u9257
sI4545
V\u92b2
sI4546
V\u9310
sI4547
V\u9318
sI4548
V\u934a
sI4549
V\u9370
sI4550
V\u93a9
sI4551
V\u93c8
sI4552
V\u93cc
sI4553
V\u93f9
sI4554
V\u9403
sI4555
V\u958c
sI4556
V\u963d
sI4557
V\u975a
sI4558
V\u9776
sI4559
V\u9832
sI4560
V\u9852
sI4561
V\u9857
sI4562
V\u9865
sI4563
V\u9997
sI4564
V\u99d8
sI4565
V\u9a3e
sI4566
V\u9abc
sI4567
V\u9ad2
sI4568
V\u9bab
sI4569
V\u9d42
sI4570
V\u9d70
sI4571
V\u9de6
sI4572
V\u9e1a
sI4573
V\u9e1b
sI4574
V\u9e7a
sI4575
V\u9ecf
sI4576
V\u9edd
sI4577
V\u9f10
sI4578
V\u9fa0
sI4579
V\u4e07
sI4580
V\u4e30
sI4581
V\u4e9b
sI4582
V\u4f19
sI4583
V\u4f7a
sI4584
V\u4f81
sI4585
V\u4fb7
sI4586
V\u4fc5
sI4587
V\u4fda
sI4588
V\u4ff3
sI4589
V\u4ffa
sI4590
V\u5007
sI4591
V\u500b
sI4592
V\u501e
sI4593
V\u505a
sI4594
V\u5096
sI4595
V\u509a
sI4596
V\u50af
sI4597
V\u50c2
sI4598
V\u50ce
sI4599
V\u50e5
sI4600
V\u5108
sI4601
V\u5118
sI4602
V\u5155
sI4603
V\u5156
sI4604
V\u51b2
sI4605
V\u51d1
sI4606
V\u51d6
sI4607
V\u520e
sI4608
V\u525e
sI4609
V\u5288
sI4610
V\u528a
sI4611
V\u52cd
sI4612
V\u52d4
sI4613
V\u52f1
sI4614
V\u5306
sI4615
V\u530f
sI4616
V\u5315
sI4617
V\u5375
sI4618
V\u5399
sI4619
V\u53c9
sI4620
V\u53ee
sI4621
V\u53f6
sI4622
V\u5415
sI4623
V\u5434
sI4624
V\u5435
sI4625
V\u5475
sI4626
V\u5486
sI4627
V\u54a2
sI4628
V\u54bb
sI4629
V\u54ce
sI4630
V\u54ff
sI4631
V\u5501
sI4632
V\u553e
sI4633
V\u5556
sI4634
V\u555e
sI4635
V\u5563
sI4636
V\u557e
sI4637
V\u5586
sI4638
V\u558b
sI4639
V\u5591
sI4640
V\u55ad
sI4641
V\u5616
sI4642
V\u5632
sI4643
V\u5639
sI4644
V\u563a
sI4645
V\u564c
sI4646
V\u5662
sI4647
V\u5664
sI4648
V\u566a
sI4649
V\u5699
sI4650
V\u56ea
sI4651
V\u5708
sI4652
V\u5729
sI4653
V\u572c
sI4654
V\u576f
sI4655
V\u5777
sI4656
V\u578d
sI4657
V\u57a1
sI4658
V\u57c2
sI4659
V\u57e4
sI4660
V\u57ed
sI4661
V\u57fd
sI4662
V\u580a
sI4663
V\u581d
sI4664
V\u5820
sI4665
V\u584d
sI4666
V\u5852
sI4667
V\u5892
sI4668
V\u58bc
sI4669
V\u58c5
sI4670
V\u58e9
sI4671
V\u5905
sI4672
V\u5924
sI4673
V\u5938
sI4674
V\u596d
sI4675
V\u597c
sI4676
V\u5981
sI4677
V\u59d8
sI4678
V\u5a03
sI4679
V\u5a2c
sI4680
V\u5a40
sI4681
V\u5ab5
sI4682
V\u5ad6
sI4683
V\u5adc
sI4684
V\u5ae9
sI4685
V\u5aea
sI4686
V\u5b08
sI4687
V\u5b10
sI4688
V\u5b16
sI4689
V\u5b53
sI4690
V\u5b5b
sI4691
V\u5b73
sI4692
V\u5b75
sI4693
V\u5bac
sI4694
V\u5bb7
sI4695
V\u5bd4
sI4696
V\u5be8
sI4697
V\u5c14
sI4698
V\u5c16
sI4699
V\u5c5c
sI4700
V\u5caf
sI4701
V\u5ccb
sI4702
V\u5cd8
sI4703
V\u5d0d
sI4704
V\u5d11
sI4705
V\u5d34
sI4706
V\u5d52
sI4707
V\u5d84
sI4708
V\u5de9
sI4709
V\u5e3d
sI4710
V\u5e40
sI4711
V\u5e6b
sI4712
V\u5ee0
sI4713
V\u5f07
sI4714
V\u5f0d
sI4715
V\u5f12
sI4716
V\u5f1c
sI4717
V\u5f58
sI4718
V\u5f89
sI4719
V\u5f9c
sI4720
V\u5fd6
sI4721
V\u5ff8
sI4722
V\u6024
sI4723
V\u602b
sI4724
V\u6041
sI4725
V\u60a8
sI4726
V\u60c7
sI4727
V\u6103
sI4728
V\u6110
sI4729
V\u612c
sI4730
V\u613f
sI4731
V\u6144
sI4732
V\u614a
sI4733
V\u6163
sI4734
V\u6165
sI4735
V\u6175
sI4736
V\u6194
sI4737
V\u6195
sI4738
V\u6197
sI4739
V\u61ae
sI4740
V\u61ca
sI4741
V\u61f0
sI4742
V\u61f6
sI4743
V\u6209
sI4744
V\u621b
sI4745
V\u6225
sI4746
V\u624e
sI4747
V\u6259
sI4748
V\u6273
sI4749
V\u6283
sI4750
V\u6293
sI4751
V\u62a8
sI4752
V\u62cb
sI4753
V\u62cf
sI4754
V\u62ee
sI4755
V\u6342
sI4756
V\u6343
sI4757
V\u6376
sI4758
V\u637b
sI4759
V\u6380
sI4760
V\u638a
sI4761
V\u63a3
sI4762
V\u63c9
sI4763
V\u6414
sI4764
V\u6417
sI4765
V\u6436
sI4766
V\u6490
sI4767
V\u649e
sI4768
V\u64ae
sI4769
V\u64d8
sI4770
V\u64e6
sI4771
V\u64f4
sI4772
V\u64fa
sI4773
V\u6514
sI4774
V\u6519
sI4775
V\u6524
sI4776
V\u652b
sI4777
V\u652e
sI4778
V\u6535
sI4779
V\u6573
sI4780
V\u65ce
sI4781
V\u661d
sI4782
V\u6648
sI4783
V\u6667
sI4784
V\u6685
sI4785
V\u6690
sI4786
V\u669f
sI4787
V\u66c5
sI4788
V\u66dd
sI4789
V\u6734
sI4790
V\u6748
sI4791
V\u6774
sI4792
V\u6777
sI4793
V\u6787
sI4794
V\u678b
sI4795
V\u67b5
sI4796
V\u67da
sI4797
V\u6818
sI4798
V\u6829
sI4799
V\u682f
sI4800
V\u6855
sI4801
V\u68b2
sI4802
V\u68b3
sI4803
V\u68c9
sI4804
V\u68d5
sI4805
V\u6966
sI4806
V\u6976
sI4807
V\u6994
sI4808
V\u69ca
sI4809
V\u69d3
sI4810
V\u69d4
sI4811
V\u69fd
sI4812
V\u6a3a
sI4813
V\u6a3e
sI4814
V\u6a48
sI4815
V\u6a81
sI4816
V\u6a89
sI4817
V\u6a97
sI4818
V\u6a9c
sI4819
V\u6aa0
sI4820
V\u6aa3
sI4821
V\u6ab3
sI4822
V\u6ae8
sI4823
V\u6c05
sI4824
V\u6c27
sI4825
V\u6c54
sI4826
V\u6c67
sI4827
V\u6c68
sI4828
V\u6c6d
sI4829
V\u6c6f
sI4830
V\u6cad
sI4831
V\u6cc2
sI4832
V\u6cc5
sI4833
V\u6d12
sI4834
V\u6d31
sI4835
V\u6d5e
sI4836
V\u6d80
sI4837
V\u6d8e
sI4838
V\u6dd6
sI4839
V\u6ddd
sI4840
V\u6de9
sI4841
V\u6df6
sI4842
V\u6e4e
sI4843
V\u6e4f
sI4844
V\u6e59
sI4845
V\u6e6b
sI4846
V\u6e8f
sI4847
V\u6eb4
sI4848
V\u6efe
sI4849
V\u6f13
sI4850
V\u6f1a
sI4851
V\u6f36
sI4852
V\u6f3c
sI4853
V\u6f53
sI4854
V\u6f8e
sI4855
V\u6fad
sI4856
V\u6fb1
sI4857
V\u6fc2
sI4858
V\u6fc9
sI4859
V\u7011
sI4860
V\u7020
sI4861
V\u7026
sI4862
V\u7039
sI4863
V\u7052
sI4864
V\u705d
sI4865
V\u7063
sI4866
V\u7064
sI4867
V\u710a
sI4868
V\u714a
sI4869
V\u715a
sI4870
V\u7174
sI4871
V\u71ac
sI4872
V\u7217
sI4873
V\u721d
sI4874
V\u723b
sI4875
V\u727e
sI4876
V\u7284
sI4877
V\u72f7
sI4878
V\u7316
sI4879
V\u739f
sI4880
V\u73b3
sI4881
V\u73bc
sI4882
V\u73dd
sI4883
V\u73de
sI4884
V\u73e4
sI4885
V\u7401
sI4886
V\u7409
sI4887
V\u742f
sI4888
V\u744a
sI4889
V\u7452
sI4890
V\u7458
sI4891
V\u745d
sI4892
V\u746b
sI4893
V\u746d
sI4894
V\u7490
sI4895
V\u74a6
sI4896
V\u74ac
sI4897
V\u74b4
sI4898
V\u74d4
sI4899
V\u74f7
sI4900
V\u7513
sI4901
V\u752c
sI4902
V\u753a
sI4903
V\u754b
sI4904
V\u7578
sI4905
V\u75a3
sI4906
V\u75d6
sI4907
V\u75d9
sI4908
V\u75e4
sI4909
V\u75fa
sI4910
V\u760d
sI4911
V\u7619
sI4912
V\u7652
sI4913
V\u766c
sI4914
V\u7696
sI4915
V\u76bf
sI4916
V\u76c5
sI4917
V\u76d6
sI4918
V\u76ea
sI4919
V\u76ef
sI4920
V\u7715
sI4921
V\u774f
sI4922
V\u775b
sI4923
V\u7761
sI4924
V\u776a
sI4925
V\u7780
sI4926
V\u779f
sI4927
V\u77ad
sI4928
V\u77b3
sI4929
V\u77cd
sI4930
V\u77f8
sI4931
V\u7809
sI4932
V\u78d4
sI4933
V\u78ef
sI4934
V\u7926
sI4935
V\u7946
sI4936
V\u7955
sI4937
V\u796b
sI4938
V\u79a7
sI4939
V\u79ed
sI4940
V\u7a40
sI4941
V\u7a4f
sI4942
V\u7a69
sI4943
V\u7aa8
sI4944
V\u7ae3
sI4945
V\u7b2a
sI4946
V\u7b31
sI4947
V\u7b47
sI4948
V\u7b8d
sI4949
V\u7b94
sI4950
V\u7b9c
sI4951
V\u7c07
sI4952
V\u7c0f
sI4953
V\u7c1e
sI4954
V\u7c38
sI4955
V\u7c43
sI4956
V\u7c9e
sI4957
V\u7cb3
sI4958
V\u7cd7
sI4959
V\u7cdd
sI4960
V\u7cef
sI4961
V\u7cf9
sI4962
V\u7d1e
sI4963
V\u7d40
sI4964
V\u7d7f
sI4965
V\u7dae
sI4966
V\u7daf
sI4967
V\u7dbe
sI4968
V\u7dda
sI4969
V\u7dde
sI4970
V\u7dfc
sI4971
V\u7e0a
sI4972
V\u7e2f
sI4973
V\u7e59
sI4974
V\u7e5f
sI4975
V\u7e9c
sI4976
V\u7f4c
sI4977
V\u7f58
sI4978
V\u7f5f
sI4979
V\u7f61
sI4980
V\u7f75
sI4981
V\u7f8b
sI4982
V\u7fa3
sI4983
V\u7fce
sI4984
V\u800d
sI4985
V\u807e
sI4986
V\u80a2
sI4987
V\u8101
sI4988
V\u8139
sI4989
V\u8165
sI4990
V\u81a9
sI4991
V\u81cf
sI4992
V\u8216
sI4993
V\u822b
sI4994
V\u8236
sI4995
V\u8237
sI4996
V\u8238
sI4997
V\u8258
sI4998
V\u8266
sI4999
V\u8268
sI5000
V\u8283
sI5001
V\u8284
sI5002
V\u828b
sI5003
V\u8291
sI5004
V\u82a9
sI5005
V\u82ad
sI5006
V\u82d3
sI5007
V\u82dc
sI5008
V\u8301
sI5009
V\u8306
sI5010
V\u8307
sI5011
V\u8309
sI5012
V\u8331
sI5013
V\u8356
sI5014
V\u837b
sI5015
V\u8386
sI5016
V\u83a0
sI5017
V\u83c7
sI5018
V\u83d6
sI5019
V\u83d8
sI5020
V\u83f9
sI5021
V\u8461
sI5022
V\u84a1
sI5023
V\u84a8
sI5024
V\u84b9
sI5025
V\u8517
sI5026
V\u8526
sI5027
V\u852b
sI5028
V\u8549
sI5029
V\u8551
sI5030
V\u855e
sI5031
V\u857a
sI5032
V\u8622
sI5033
V\u863c
sI5034
V\u866b
sI5035
V\u8671
sI5036
V\u868a
sI5037
V\u8693
sI5038
V\u86a3
sI5039
V\u86a8
sI5040
V\u86af
sI5041
V\u86c4
sI5042
V\u86d1
sI5043
V\u86e9
sI5044
V\u86f8
sI5045
V\u86fa
sI5046
V\u8709
sI5047
V\u8712
sI5048
V\u8713
sI5049
V\u871a
sI5050
V\u8737
sI5051
V\u873f
sI5052
V\u8764
sI5053
V\u8766
sI5054
V\u8793
sI5055
V\u8797
sI5056
V\u87ab
sI5057
V\u8803
sI5058
V\u881f
sI5059
V\u886b
sI5060
V\u886e
sI5061
V\u88e6
sI5062
V\u8927
sI5063
V\u893b
sI5064
V\u895e
sI5065
V\u89f6
sI5066
V\u8a46
sI5067
V\u8a5b
sI5068
V\u8a6c
sI5069
V\u8ab9
sI5070
V\u8af2
sI5071
V\u8af4
sI5072
V\u8b1c
sI5073
V\u8b26
sI5074
V\u8b29
sI5075
V\u8c5a
sI5076
V\u8cc5
sI5077
V\u8cec
sI5078
V\u8d10
sI5079
V\u8d13
sI5080
V\u8d1b
sI5081
V\u8d67
sI5082
V\u8d81
sI5083
V\u8ddf
sI5084
V\u8deb
sI5085
V\u8dfd
sI5086
V\u8e05
sI5087
V\u8e14
sI5088
V\u8e1f
sI5089
V\u8e6d
sI5090
V\u8e74
sI5091
V\u8e90
sI5092
V\u8e9e
sI5093
V\u8eb2
sI5094
V\u8ef9
sI5095
V\u8f0a
sI5096
V\u8f1b
sI5097
V\u8f3e
sI5098
V\u8f4e
sI5099
V\u8fae
sI5100
V\u9004
sI5101
V\u9008
sI5102
V\u901b
sI5103
V\u90b6
sI5104
V\u90bd
sI5105
V\u90c3
sI5106
V\u90c4
sI5107
V\u9111
sI5108
V\u9114
sI5109
V\u913a
sI5110
V\u9147
sI5111
V\u917a
sI5112
V\u918d
sI5113
V\u91a2
sI5114
V\u91ac
sI5115
V\u91af
sI5116
V\u91b5
sI5117
V\u91d3
sI5118
V\u9204
sI5119
V\u9214
sI5120
V\u9239
sI5121
V\u923d
sI5122
V\u9240
sI5123
V\u925f
sI5124
V\u9265
sI5125
V\u9277
sI5126
V\u929a
sI5127
V\u92c1
sI5128
V\u92cf
sI5129
V\u92fc
sI5130
V\u9336
sI5131
V\u9360
sI5132
V\u9364
sI5133
V\u93aa
sI5134
V\u93c3
sI5135
V\u93e8
sI5136
V\u9408
sI5137
V\u9419
sI5138
V\u942e
sI5139
V\u9432
sI5140
V\u9472
sI5141
V\u953a
sI5142
V\u9582
sI5143
V\u9598
sI5144
V\u95cd
sI5145
V\u963c
sI5146
V\u965e
sI5147
V\u972a
sI5148
V\u9774
sI5149
V\u9798
sI5150
V\u97c1
sI5151
V\u9826
sI5152
V\u982b
sI5153
V\u9846
sI5154
V\u986b
sI5155
V\u9870
sI5156
V\u9874
sI5157
V\u98b1
sI5158
V\u98b6
sI5159
V\u98e2
sI5160
V\u98fc
sI5161
V\u9905
sI5162
V\u9909
sI5163
V\u9913
sI5164
V\u99b1
sI5165
V\u99c9
sI5166
V\u99dd
sI5167
V\u99f0
sI5168
V\u9a05
sI5169
V\u9a19
sI5170
V\u9a40
sI5171
V\u9aaf
sI5172
V\u9ac0
sI5173
V\u9b1f
sI5174
V\u9b32
sI5175
V\u9baa
sI5176
V\u9bc0
sI5177
V\u9beb
sI5178
V\u9c13
sI5179
V\u9c78
sI5180
V\u9d30
sI5181
V\u9d3f
sI5182
V\u9d51
sI5183
V\u9d61
sI5184
V\u9dd7
sI5185
V\u9dda
sI5186
V\u9de5
sI5187
V\u9e82
sI5188
V\u9eb9
sI5189
V\u9ee5
sI5190
V\u9ef2
sI5191
V\u9f19
sI5192
V\u9f4f
sI5193
V\u9f5f
sI5194
V\u9f6a
sI5195
V\u9f6c
ssS'id_to_tag'
p4
(dp5
I0
VO
sI1
VB
sI2
VI
ssS'id_to_word'
p6
(dp7
I0
S'<UNK>'
p8
sI1
V\u4e4b
sI2
V\u65bc
sI3
Va
sI4
V\u4ee5
sI5
V\u4eba
sI6
V\u5e74
sI7
V\u4e0d
sI8
V\u800c
sI9
V\u5176
sI10
V\u5341
sI11
V\u65e5
sI12
V\u6709
sI13
V\u6708
sI14
V\u4e5f
sI15
V\u541b
sI16
V\u5dde
sI17
V\u516c
sI18
V\u5b50
sI19
V\u592b
sI20
V\u5927
sI21
V\u5fb7
sI22
V\u4e8c
sI23
V\u5e9c
sI24
V\u70ba
sI25
V\u4e09
sI26
V\u9577
sI27
V\u7e23
sI28
V\u4e00
sI29
V\u5929
sI30
V\u7121
sI31
V\u66f0
sI32
V\u9298
sI33
V\u79ae
sI34
V\u4e94
sI35
V\u6c0f
sI36
V\u7956
sI37
V\u8ecd
sI38
V\u6545
sI39
V\u98a8
sI40
V\u5510
sI41
V\u56db
sI42
V\u967d
sI43
V\u884c
sI44
V\u4e2d
sI45
V\u5c07
sI46
V\u81ea
sI47
V\u53f2
sI48
V\u5143
sI49
V\u5893
sI50
V\u9053
sI51
V\u5c71
sI52
V\u516d
sI53
V\u4ee4
sI54
V\u570b
sI55
V\u7b2c
sI56
V\u5357
sI57
V\u751f
sI58
V\u6cb3
sI59
V\u7d42
sI60
V\u4e26
sI61
V\u4e0a
sI62
V\u8af1
sI63
V\u516e
sI64
V\u4e8b
sI65
V\u79cb
sI66
V\u8a8c
sI67
V\u5148
sI68
V\u9ad8
sI69
V\u6625
sI70
V\u738b
sI71
V\u4e03
sI72
V\u6587
sI73
V\u5bb6
sI74
V\u91cc
sI75
V\u6e05
sI76
V\u671d
sI77
V\u539f
sI78
V\u9580
sI79
V\u6642
sI80
V\u4ee3
sI81
V\u592a
sI82
V\u54c0
sI83
V\u5eff
sI84
V\u7236
sI85
V\u660e
sI86
V\u4e5d
sI87
V\u5149
sI88
V\u6b72
sI89
V\u66f8
sI90
V\u8c9e
sI91
V\u6b78
sI92
V\u7687
sI93
V\u57ce
sI94
V\u53f8
sI95
V\u516b
sI96
V\u897f
sI97
V\u5b5d
sI98
V\u4f55
sI99
V\u540d
sI100
V\u6c38
sI101
V\u5b89
sI102
V\u6771
sI103
V\u6b21
sI104
V\u4e43
sI105
V\u5f8c
sI106
V\u77f3
sI107
V\u90ce
sI108
V\u90e1
sI109
V\u958b
sI110
V\u5fc3
sI111
V\u5317
sI112
V\u9077
sI113
V\u5e8f
sI114
V\u65b9
sI115
V\u5fd7
sI116
V\u91d1
sI117
V\u5e73
sI118
V\u5f9e
sI119
V\u6210
sI120
V\u672a
sI121
V\u5973
sI122
V\u795e
sI123
V\u6d1b
sI124
V\u5247
sI125
V\u540c
sI126
V\u5373
sI127
V\u6b66
sI128
V\u4ec1
sI129
V\u8a00
sI130
V\u5b57
sI131
V\u96f2
sI132
V\u662f
sI133
V\u9109
sI134
V\u7fa9
sI135
V\u5100
sI136
V\u846c
sI137
V\u6388
sI138
V\u968b
sI139
V\u547d
sI140
V\u4e0b
sI141
V\u8005
sI142
V\u6cc9
sI143
V\u6240
sI144
V\u60b2
sI145
V\u5b98
sI146
V\u5982
sI147
V\u5728
sI148
V\u5343
sI149
V\u53ef
sI150
V\u66fe
sI151
V\u5c09
sI152
V\u82b3
sI153
V\u77e5
sI154
V\u81f3
sI155
V\u90fd
sI156
V\u6d41
sI157
V\u5468
sI158
V\u9060
sI159
V\u9f8d
sI160
V\u7bc0
sI161
V\u5730
sI162
V\u548c
sI163
V\u83ef
sI164
V\u885b
sI165
V\u5c45
sI166
V\u4efb
sI167
V\u58eb
sI168
V\u524d
sI169
V\u6c34
sI170
V\u842c
sI171
V\u5584
sI172
V\u77e3
sI173
V\u99ac
sI174
V\u60df
sI175
V\u547c
sI176
V\u5de6
sI177
V\u7109
sI178
V\u75be
sI179
V\u76f8
sI180
V\u55da
sI181
V\u65af
sI182
V\u9675
sI183
V\u8f09
sI184
V\u53c3
sI185
V\u7389
sI186
V\u4e16
sI187
V\u79c1
sI188
V\u9748
sI189
V\u5167
sI190
V\u4f7f
sI191
V\u54c9
sI192
V\u51fa
sI193
V\u677e
sI194
V\u8072
sI195
V\u5949
sI196
V\u5c1a
sI197
V\u4e4e
sI198
V\u8207
sI199
V\u805e
sI200
V\u80fd
sI201
V\u6176
sI202
V\u9042
sI203
V\u8ce2
sI204
V\u53e4
sI205
V\u5b6b
sI206
V\u53ca
sI207
V\u69ae
sI208
V\u6a02
sI209
V\u627f
sI210
V\u55e3
sI211
V\u5408
sI212
V\u7384
sI213
V\u523a
sI214
V\u7f8e
sI215
V\u6b63
sI216
V\u5b88
sI217
V\u624d
sI218
V\u767d
sI219
V\u65e2
sI220
V\u767e
sI221
V\u65cf
sI222
V\u5e38
sI223
V\u5b97
sI224
V\u6d77
sI225
V\u5e2b
sI226
V\u4eca
sI227
V\u5916
sI228
V\u5fe0
sI229
V\u5f97
sI230
V\u6027
sI231
V\u9f4a
sI232
V\u89aa
sI233
V\u7136
sI234
V\u529f
sI235
V\u901a
sI236
V\u514b
sI237
V\u91cd
sI238
V\u6f22
sI239
V\u61f7
sI240
V\u82f1
sI241
V\u9304
sI242
V\u6714
sI243
V\u4eac
sI244
V\u671b
sI245
V\u6b64
sI246
V\u5146
sI247
V\u5e7d
sI248
V\u9099
sI249
V\u5c01
sI250
V\u5be6
sI251
V\u7b49
sI252
V\u53f3
sI253
V\u6df1
sI254
V\u4f8d
sI255
V\u51a0
sI256
V\u5ddd
sI257
V\u656c
sI258
V\u862d
sI259
V\u8eab
sI260
V\u56e0
sI261
V\u8a5e
sI262
V\u666f
sI263
V\u9752
sI264
V\u5df2
sI265
V\u5b64
sI266
V\u671f
sI267
V\u826f
sI268
V\u8c37
sI269
V\u696d
sI270
V\u674e
sI271
V\u4e3b
sI272
V\u6797
sI273
V\u6211
sI274
V\u5b78
sI275
V\u8b02
sI276
V\u8c48
sI277
V\u8449
sI278
V\u82e5
sI279
V\u4e1e
sI280
V\u50b3
sI281
V\u75db
sI282
V\u7528
sI283
V\u6c23
sI284
V\u96e3
sI285
V\u79c0
sI286
V\u5316
sI287
V\u90e8
sI288
V\u5ba4
sI289
V\u601d
sI290
V\u7d55
sI291
V\u7406
sI292
V\u8af8
sI293
V\u8302
sI294
V\u7acb
sI295
V\u7d93
sI296
V\u7a7a
sI297
V\u53f0
sI298
V\u591c
sI299
V\u7a31
sI300
V\u58fd
sI301
V\u5352
sI302
V\u5fa1
sI303
V\u5e7c
sI304
V\u5206
sI305
V\u517c
sI306
V\u67f1
sI307
V\u898b
sI308
V\u98db
sI309
V\u5e1d
sI310
V\u5bf6
sI311
V\u7d00
sI312
V\u4f86
sI313
V\u653f
sI314
V\u8a13
sI315
V\u7d20
sI316
V\u81e8
sI317
V\u5165
sI318
V\u6dd1
sI319
V\u4f5c
sI320
V\u584b
sI321
V\u6a39
sI322
V\u5fc5
sI323
V\u9ec3
sI324
V\u59cb
sI325
V\u5944
sI326
V\u8457
sI327
V\u7533
sI328
V\u96b4
sI329
V\u975e
sI330
V\u4faf
sI331
V\u54b8
sI332
V\u60c5
sI333
V\u65e9
sI334
V\u5f35
sI335
V\u66f9
sI336
V\u7559
sI337
V\u7686
sI338
V\u53c8
sI339
V\u6563
sI340
V\u9091
sI341
V\u907a
sI342
V\u5ead
sI343
V\u7576
sI344
V\u7269
sI345
V\u8208
sI346
V\u6ce3
sI347
V\u8332
sI348
V\u4ed5
sI349
V\u865f
sI350
V\u4eab
sI351
V\u5ea6
sI352
V\u5099
sI353
V\u797f
sI354
V\u901d
sI355
V\u660c
sI356
V\u8868
sI357
V\u5d07
sI358
V\u8def
sI359
V\u55aa
sI360
V\u4f4d
sI361
V\u5bb9
sI362
V\u6bcd
sI363
V\u6649
sI364
V\u4fc4
sI365
V\u662d
sI366
V\u52a0
sI367
V\u8003
sI368
V\u5fa9
sI369
V\u8077
sI370
V\u96d6
sI371
V\u8655
sI372
V\u6c89
sI373
V\u89c0
sI374
V\u964d
sI375
V\u5175
sI376
V\u518a
sI377
V\u5c11
sI378
V\u606d
sI379
V\u521d
sI380
V\u6b77
sI381
V\u9b4f
sI382
V\u9806
sI383
V\u96c5
sI384
V\u63da
sI385
V\u76f4
sI386
V\u5217
sI387
V\u5f18
sI388
V\u5fbd
sI389
V\u6cd5
sI390
V\u6216
sI391
V\u7a4d
sI392
V\u8209
sI393
V\u5bae
sI394
V\u5ba3
sI395
V\u83ab
sI396
V\u76e3
sI397
V\u9032
sI398
V\u4fe1
sI399
V\u64b0
sI400
V\u8cc7
sI401
V\u5a66
sI402
V\u672c
sI403
V\u53bb
sI404
V\u4e18
sI405
V\u8b8a
sI406
V\u798f
sI407
V\u843d
sI408
V\u8cea
sI409
V\u6236
sI410
V\u65b0
sI411
V\u7530
sI412
V\u7565
sI413
V\u76db
sI414
V\u5b58
sI415
V\u6e90
sI416
V\u9cf3
sI417
V\u8303
sI418
V\u53cb
sI419
V\u8d08
sI420
V\u52d2
sI421
V\u537f
sI422
V\u7230
sI423
V\u9732
sI424
V\u6069
sI425
V\u6975
sI426
V\u591a
sI427
V\u6050
sI428
V\u986f
sI429
V\u6c5f
sI430
V\u6e38
sI431
V\u5716
sI432
V\u7a86
sI433
V\u76e1
sI434
V\u971c
sI435
V\u9670
sI436
V\u5a01
sI437
V\u79fb
sI438
V\u7ae0
sI439
V\u6613
sI440
V\u694a
sI441
V\u4ea1
sI442
V\u9673
sI443
V\u6eab
sI444
V\u7a1f
sI445
V\u4fee
sI446
V\u5377
sI447
V\u8b70
sI448
V\u611f
sI449
V\u7954
sI450
V\u7d2b
sI451
V\u8d77
sI452
V\u5f80
sI453
V\u7537
sI454
V\u5c6c
sI455
V\u907d
sI456
V\u5668
sI457
V\u5ffd
sI458
V\u4ea6
sI459
V\u5df1
sI460
V\u70c8
sI461
V\u9b42
sI462
V\u7de8
sI463
V\u6881
sI464
V\u8b7d
sI465
V\u7570
sI466
V\u5609
sI467
V\u8fad
sI468
V\u8056
sI469
V\u898f
sI470
V\u67d4
sI471
V\u535a
sI472
V\u5ef6
sI473
V\u543e
sI474
V\u61c9
sI475
V\u5236
sI476
V\u6b0a
sI477
V\u8cb4
sI478
V\u555f
sI479
V\u8840
sI480
V\u5fb5
sI481
V\u58b3
sI482
V\u5782
sI483
V\u60e0
sI484
V\u7434
sI485
V\u52f3
sI486
V\u9a0e
sI487
V\u5f0f
sI488
V\u5f7c
sI489
V\u5b9c
sI490
V\u5f1f
sI491
V\u96c4
sI492
V\u5eb6
sI493
V\u84cb
sI494
V\u5225
sI495
V\u59d3
sI496
V\u661f
sI497
V\u6a19
sI498
V\u8aa0
sI499
V\u8cd3
sI500
V\u9054
sI501
V\u9593
sI502
V\u990a
sI503
V\u50b7
sI504
V\u84bc
sI505
V\u8f49
sI506
V\u9918
sI507
V\u9058
sI508
V\u7d2f
sI509
V\u8085
sI510
V\u4fd7
sI511
V\u767b
sI512
V\u8b58
sI513
V\u5802
sI514
V\u5f92
sI515
V\u55df
sI516
V\u56fa
sI517
V\u6559
sI518
V\u6821
sI519
V\u767c
sI520
V\u7368
sI521
V\u7532
sI522
V\u9069
sI523
V\u5b9a
sI524
V\u820a
sI525
V\u6467
sI526
V\u6539
sI527
V\u6148
sI528
V\u7cbe
sI529
V\u85cf
sI530
V\u8972
sI531
V\u8eca
sI532
V\u633a
sI533
V\u6fdf
sI534
V\u528d
sI535
V\u4f2f
sI536
V\u4e39
sI537
V\u7e7c
sI538
V\u8d99
sI539
V\u4f59
sI540
V\u7337
sI541
V\u8db3
sI542
V\u5be7
sI543
V\u5efa
sI544
V\u5f59
sI545
V\u61ff
sI546
V\u96a8
sI547
V\u51dd
sI548
V\u54f2
sI549
V\u7cb5
sI550
V\u5be2
sI551
V\u4e45
sI552
V\u535c
sI553
V\u5b85
sI554
V\u8f14
sI555
V\u5bd2
sI556
V\u571f
sI557
V\u5ee3
sI558
V\u6614
sI559
V\u771f
sI560
V\u903e
sI561
V\u611b
sI562
V\u8863
sI563
V\u4ef2
sI564
V\u5bfa
sI565
V\u7aae
sI566
V\u8ffd
sI567
V\u5b63
sI568
V\u5c0b
sI569
V\u8ed2
sI570
V\u81e3
sI571
V\u8cdc
sI572
V\u7531
sI573
V\u62dc
sI574
V\u632f
sI575
V\u8de1
sI576
V\u9592
sI577
V\u98df
sI578
V\u6751
sI579
V\u8b1d
sI580
V\u670d
sI581
V\u904b
sI582
V\u79e6
sI583
V\u5f70
sI584
V\u6842
sI585
V\u63a8
sI586
V\u52e4
sI587
V\u5169
sI588
V\u554f
sI589
V\u4f50
sI590
V\u9023
sI591
V\u91ce
sI592
V\u5947
sI593
V\u6155
sI594
V\u6731
sI595
V\u7e3d
sI596
V\u679d
sI597
V\u904e
sI598
V\u912d
sI599
V\u6703
sI600
V\u9149
sI601
V\u552f
sI602
V\u5145
sI603
V\u4ea4
sI604
V\u4e01
sI605
V\u9b5a
sI606
V\u597d
sI607
V\u89e3
sI608
V\u5875
sI609
V\u8fb0
sI610
V\u52d5
sI611
V\u6baf
sI612
V\u9996
sI613
V\u5919
sI614
V\u5c0f
sI615
V\u64ab
sI616
V\u99d5
sI617
V\u73e0
sI618
V\u4ef0
sI619
V\u590f
sI620
V\u6bd4
sI621
V\u8a54
sI622
V\u5180
sI623
V\u5f62
sI624
V\u520a
sI625
V\u59ff
sI626
V\u5bc2
sI627
V\u6b4e
sI628
V\u7336
sI629
V\u95a8
sI630
V\u9686
sI631
V\u8272
sI632
V\u620e
sI633
V\u8a18
sI634
V\u4f11
sI635
V\u6eff
sI636
V\u820d
sI637
V\u540f
sI638
V\u97f3
sI639
V\u5289
sI640
V\u6b4c
sI641
V\u51a5
sI642
V\u53d7
sI643
V\u7b56
sI644
V\u8acb
sI645
V\u9f61
sI646
V\u5141
sI647
V\u6301
sI648
V\u7dd2
sI649
V\u5409
sI650
V\u5f4c
sI651
V\u723e
sI652
V\u7d50
sI653
V\u4f9d
sI654
V\u9cf4
sI655
V\u5178
sI656
V\u5229
sI657
V\u542b
sI658
V\u58ec
sI659
V\u6b7b
sI660
V\u7b26
sI661
V\u679c
sI662
V\u6b7f
sI663
V\u8a69
sI664
V\u8b00
sI665
V\u5f69
sI666
V\u4ed9
sI667
V\u4fdd
sI668
V\u9d3b
sI669
V\u57fa
sI670
V\u5c65
sI671
V\u6298
sI672
V\u8001
sI673
V\u6f64
sI674
V\u93e1
sI675
V\u5e9a
sI676
V\u79e9
sI677
V\u80e4
sI678
V\u8a95
sI679
V\u9038
sI680
V\u63a9
sI681
V\u8f1d
sI682
V\u59bb
sI683
V\u53a5
sI684
V\u8abf
sI685
V\u6ec5
sI686
V\u673d
sI687
V\u99b3
sI688
V\u5bf5
sI689
V\u7c21
sI690
V\u6ce2
sI691
V\u64cd
sI692
V\u7763
sI693
V\u865b
sI694
V\u9664
sI695
V\u5112
sI696
V\u5144
sI697
V\u5617
sI698
V\u8a66
sI699
V\u9f9c
sI700
V\u9761
sI701
V\u539a
sI702
V\u95d5
sI703
V\u5168
sI704
V\u667a
sI705
V\u856d
sI706
V\u9ad4
sI707
V\u52dd
sI708
V\u93ae
sI709
V\u4e14
sI710
V\u4e58
sI711
V\u8352
sI712
V\u9a5a
sI713
V\u606f
sI714
V\u654f
sI715
V\u7c3f
sI716
V\u58e4
sI717
V\u5cb3
sI718
V\u5a49
sI719
V\u695a
sI720
V\u5171
sI721
V\u7279
sI722
V\u96cd
sI723
V\u81f4
sI724
V\u821f
sI725
V\u5433
sI726
V\u5712
sI727
V\u5ec9
sI728
V\u8f9b
sI729
V\u932b
sI730
V\u5999
sI731
V\u64e2
sI732
V\u5fae
sI733
V\u65cc
sI734
V\u9130
sI735
V\u5f31
sI736
V\u6a5f
sI737
V\u52d9
sI738
V\u64ad
sI739
V\u6cd0
sI740
V\u8ff0
sI741
V\u57f7
sI742
V\u5d14
sI743
V\u6750
sI744
V\u9db4
sI745
V\u6578
sI746
V\u5195
sI747
V\u7387
sI748
V\u6b62
sI749
V\u88d4
sI750
V\u9078
sI751
V\u6620
sI752
V\u7aef
sI753
V\u59d4
sI754
V\u85dd
sI755
V\u5bc5
sI756
V\u7a46
sI757
V\u8d8a
sI758
V\u56b4
sI759
V\u5bdf
sI760
V\u9050
sI761
V\u518d
sI762
V\u5b87
sI763
V\u8a31
sI764
V\u9084
sI765
V\u7fa4
sI766
V\u9f0e
sI767
V\u610f
sI768
V\u614e
sI769
V\u975c
sI770
V\u96d9
sI771
V\u52de
sI772
V\u7dbf
sI773
V\u904a
sI774
V\u67cf
sI775
V\u6c42
sI776
V\u6d6e
sI777
V\u758f
sI778
V\u5f08
sI779
V\u6fa4
sI780
V\u4f73
sI781
V\u5931
sI782
V\u9a30
sI783
V\u6728
sI784
V\u69cb
sI785
V\u96b1
sI786
V\u6aa2
sI787
V\u7f54
sI788
V\u90a6
sI789
V\u91cf
sI790
V\u523b
sI791
V\u529b
sI792
V\u6851
sI793
V\u6d2a
sI794
V\u5348
sI795
V\u5e7e
sI796
V\u6276
sI797
V\u53d4
sI798
V\u7fbd
sI799
V\u512a
sI800
V\u8d0a
sI801
V\u76ca
sI802
V\u85a8
sI803
V\u7701
sI804
V\u9928
sI805
V\u5f99
sI806
V\u6bbf
sI807
V\u5207
sI808
V\u9818
sI809
V\u745f
sI810
V\u6bc0
sI811
V\u73ed
sI812
V\u4ff1
sI813
V\u6243
sI814
V\u71df
sI815
V\u79d8
sI816
V\u7ffc
sI817
V\u8349
sI818
V\u8b77
sI819
V\u5c31
sI820
V\u6dd2
sI821
V\u76e7
sI822
V\u96c6
sI823
V\u7678
sI824
V\u7e3e
sI825
V\u965d
sI826
V\u589e
sI827
V\u8b19
sI828
V\u9280
sI829
V\u77bb
sI830
V\u9e1e
sI831
V\u4e59
sI832
V\u54e1
sI833
V\u5cfb
sI834
V\u8910
sI835
V\u502b
sI836
V\u6d3e
sI837
V\u7159
sI838
V\u7c2a
sI839
V\u6606
sI840
V\u7a74
sI841
V\u834a
sI842
V\u8cc8
sI843
V\u773e
sI844
V\u65cb
sI845
V\u8c50
sI846
V\u8ca0
sI847
V\u984f
sI848
V\u9867
sI849
V\u6689
sI850
V\u56de
sI851
V\u615f
sI852
V\u7e8f
sI853
V\u59fb
sI854
V\u574a
sI855
V\u5de5
sI856
V\u6566
sI857
V\u6bcf
sI858
V\u70cf
sI859
V\u80c4
sI860
V\u860a
sI861
V\u8a73
sI862
V\u594f
sI863
V\u6562
sI864
V\u7ba1
sI865
V\u4e7e
sI866
V\u7167
sI867
V\u8cde
sI868
V\u9b6f
sI869
V\u5345
sI870
V\u6668
sI871
V\u6b65
sI872
V\u6f54
sI873
V\u7fca
sI874
V\u589c
sI875
V\u5f71
sI876
V\u6bc5
sI877
V\u8fd1
sI878
V\u7562
sI879
V\u7fd2
sI880
V\u7af9
sI881
V\u865e
sI882
V\u5c0a
sI883
V\u798d
sI884
V\u9047
sI885
V\u937e
sI886
V\u5937
sI887
V\u65b7
sI888
V\u6c96
sI889
V\u4f0a
sI890
V\u9055
sI891
V\u60a0
sI892
V\u6717
sI893
V\u806f
sI894
V\u82b1
sI895
V\u96e2
sI896
V\u536f
sI897
V\u5b5f
sI898
V\u5f6d
sI899
V\u6182
sI900
V\u7965
sI901
V\u9059
sI902
V\u6d0e
sI903
V\u5ff5
sI904
V\u6548
sI905
V\u5bbf
sI906
V\u5e72
sI907
V\u66f4
sI908
V\u888b
sI909
V\u6b5f
sI910
V\u71d5
sI911
V\u7dad
sI912
V\u82ac
sI913
V\u85fb
sI914
V\u5f85
sI915
V\u968e
sI916
V\u6046
sI917
V\u68f2
sI918
V\u8d85
sI919
V\u54ed
sI920
V\u675c
sI921
V\u9aa8
sI922
V\u7cfb
sI923
V\u838a
sI924
V\u91cb
sI925
V\u526f
sI926
V\u6d3d
sI927
V\u7a4e
sI928
V\u59d1
sI929
V\u6068
sI930
V\u61f8
sI931
V\u6c5d
sI932
V\u9075
sI933
V\u4ecd
sI934
V\u63a5
sI935
V\u90ed
sI936
V\u5c55
sI937
V\u5fd8
sI938
V\u7ff0
sI939
V\u5e78
sI940
V\u620a
sI941
V\u97cb
sI942
V\u9ee8
sI943
V\u6c92
sI944
V\u7b04
sI945
V\u8944
sI946
V\u5915
sI947
V\u5f15
sI948
V\u7c4d
sI949
V\u90ca
sI950
V\u6538
sI951
V\u689d
sI952
V\u58d1
sI953
V\u9ce5
sI954
V\u544a
sI955
V\u5bb0
sI956
V\u8b93
sI957
V\u5eb7
sI958
V\u67f3
sI959
V\u7940
sI960
V\u8ab0
sI961
V\u929c
sI962
V\u88dc
sI963
V\u8fb2
sI964
V\u95b1
sI965
V\u5c0d
sI966
V\u8667
sI967
V\u50d5
sI968
V\u5177
sI969
V\u5085
sI970
V\u5109
sI971
V\u5922
sI972
V\u5bc4
sI973
V\u82e6
sI974
V\u6b32
sI975
V\u80b2
sI976
V\u88ab
sI977
V\u8ae7
sI978
V\u95dc
sI979
V\u97d3
sI980
V\u81ba
sI981
V\u85e5
sI982
V\u8ad6
sI983
V\u82d7
sI984
V\u74ca
sI985
V\u8c61
sI986
V\u532a
sI987
V\u9b31
sI988
V\u52c7
sI989
V\u5c04
sI990
V\u66f2
sI991
V\u5b8b
sI992
V\u737b
sI993
V\u7f77
sI994
V\u8000
sI995
V\u6368
sI996
V\u6c60
sI997
V\u8853
sI998
V\u5347
sI999
V\u7e31
sI1000
V\u8f15
sI1001
V\u51f6
sI1002
V\u5805
sI1003
V\u5d29
sI1004
V\u748b
sI1005
V\u8cab
sI1006
V\u5f26
sI1007
V\u6f5b
sI1008
V\u5ba2
sI1009
V\u616e
sI1010
V\u8ca2
sI1011
V\u5b2a
sI1012
V\u5df3
sI1013
V\u64ca
sI1014
V\u50be
sI1015
V\u6dee
sI1016
V\u80e1
sI1017
V\u65bd
sI1018
V\u7bc4
sI1019
V\u9020
sI1020
V\u4fca
sI1021
V\u53d6
sI1022
V\u62b1
sI1023
V\u64c5
sI1024
V\u670b
sI1025
V\u7b46
sI1026
V\u7fe0
sI1027
V\u9858
sI1028
V\u9999
sI1029
V\u95ad
sI1030
V\u7235
sI1031
V\u76ee
sI1032
V\u8a60
sI1033
V\u9152
sI1034
V\u5009
sI1035
V\u5b8f
sI1036
V\u6dda
sI1037
V\u7aed
sI1038
V\u7b6e
sI1039
V\u8996
sI1040
V\u9452
sI1041
V\u5c48
sI1042
V\u7766
sI1043
V\u8499
sI1044
V\u9000
sI1045
V\u942b
sI1046
V\u9678
sI1047
V\u5047
sI1048
V\u5091
sI1049
V\u5dd6
sI1050
V\u97ff
sI1051
V\u5951
sI1052
V\u5ba6
sI1053
V\u6158
sI1054
V\u6a6b
sI1055
V\u7e41
sI1056
V\u8861
sI1057
V\u5224
sI1058
V\u58ef
sI1059
V\u5f8b
sI1060
V\u6f38
sI1061
V\u6f84
sI1062
V\u7e93
sI1063
V\u623f
sI1064
V\u90c1
sI1065
V\u95c8
sI1066
V\u966a
sI1067
V\u4f0f
sI1068
V\u5211
sI1069
V\u585e
sI1070
V\u5e37
sI1071
V\u6cf0
sI1072
V\u5bc6
sI1073
V\u5cf0
sI1074
V\u6b3d
sI1075
V\u6b8a
sI1076
V\u7d39
sI1077
V\u878d
sI1078
V\u9676
sI1079
V\u97dc
sI1080
V\u539d
sI1081
V\u4e91
sI1082
V\u8f3f
sI1083
V\u5c90
sI1084
V\u7d44
sI1085
V\u8070
sI1086
V\u57df
sI1087
V\u6dbc
sI1088
V\u723d
sI1089
V\u7d14
sI1090
V\u829d
sI1091
V\u5152
sI1092
V\u51e1
sI1093
V\u7adf
sI1094
V\u5055
sI1095
V\u51b0
sI1096
V\u624b
sI1097
V\u6558
sI1098
V\u7981
sI1099
V\u9001
sI1100
V\u9081
sI1101
V\u5f37
sI1102
V\u6500
sI1103
V\u795a
sI1104
V\u5f90
sI1105
V\u65e8
sI1106
V\u8d6b
sI1107
V\u8e10
sI1108
V\u9589
sI1109
V\u4e82
sI1110
V\u66ae
sI1111
V\u8f9f
sI1112
V\u5b54
sI1113
V\u660a
sI1114
V\u6666
sI1115
V\u6d95
sI1116
V\u8584
sI1117
V\u6307
sI1118
V\u752b
sI1119
V\u7ae5
sI1120
V\u8da8
sI1121
V\u9a65
sI1122
V\u4ea5
sI1123
V\u68c4
sI1124
V\u8eac
sI1125
V\u965f
sI1126
V\u64c7
sI1127
V\u6df3
sI1128
V\u79aa
sI1129
V\u9727
sI1130
V\u5831
sI1131
V\u60bc
sI1132
V\u61fc
sI1133
V\u621a
sI1134
V\u6ece
sI1135
V\u7f72
sI1136
V\u5f65
sI1137
V\u73cd
sI1138
V\u7a78
sI1139
V\u9418
sI1140
V\u985e
sI1141
V\u4e11
sI1142
V\u4ead
sI1143
V\u592d
sI1144
V\u7949
sI1145
V\u9e9f
sI1146
V\u5bec
sI1147
V\u609f
sI1148
V\u902e
sI1149
V\u5c08
sI1150
V\u6555
sI1151
V\u68d8
sI1152
V\u76c8
sI1153
V\u807d
sI1154
V\u88d5
sI1155
V\u66c6
sI1156
V\u7372
sI1157
V\u51ac
sI1158
V\u74b0
sI1159
V\u8ce6
sI1160
V\u9e97
sI1161
V\u5e0c
sI1162
V\u751a
sI1163
V\u96ea
sI1164
V\u832b
sI1165
V\u725b
sI1166
V\u7267
sI1167
V\u8ecc
sI1168
V\u9326
sI1169
V\u5e03
sI1170
V\u6bb7
sI1171
V\u885d
sI1172
V\u85a4
sI1173
V\u971e
sI1174
V\u6101
sI1175
V\u7317
sI1176
V\u79c9
sI1177
V\u5371
sI1178
V\u6893
sI1179
V\u4eae
sI1180
V\u505c
sI1181
V\u6021
sI1182
V\u638c
sI1183
V\u6b61
sI1184
V\u71ed
sI1185
V\u87ec
sI1186
V\u8faf
sI1187
V\u9b44
sI1188
V\u5750
sI1189
V\u6d25
sI1190
V\u7f6e
sI1191
V\u5747
sI1192
V\u5b70
sI1193
V\u5eb8
sI1194
V\u6756
sI1195
V\u9803
sI1196
V\u4e8e
sI1197
V\u4fbf
sI1198
V\u59dc
sI1199
V\u5a18
sI1200
V\u5a36
sI1201
V\u653e
sI1202
V\u665d
sI1203
V\u8859
sI1204
V\u8ac7
sI1205
V\u8b39
sI1206
V\u9014
sI1207
V\u96d5
sI1208
V\u5857
sI1209
V\u660f
sI1210
V\u6dea
sI1211
V\u60f3
sI1212
V\u6b9e
sI1213
V\u9088
sI1214
V\u5bcc
sI1215
V\u5de2
sI1216
V\u984c
sI1217
V\u540a
sI1218
V\u65c5
sI1219
V\u796d
sI1220
V\u908a
sI1221
V\u4ea8
sI1222
V\u5411
sI1223
V\u5c40
sI1224
V\u8205
sI1225
V\u8339
sI1226
V\u4ed6
sI1227
V\u5321
sI1228
V\u58a8
sI1229
V\u7dac
sI1230
V\u95a3
sI1231
V\u96e8
sI1232
V\u97fb
sI1233
V\u5351
sI1234
V\u62fe
sI1235
V\u66c9
sI1236
V\u7d73
sI1237
V\u85e9
sI1238
V\u8607
sI1239
V\u8f2a
sI1240
V\u54c1
sI1241
V\u6b98
sI1242
V\u6bb2
sI1243
V\u7430
sI1244
V\u77ed
sI1245
V\u4ffe
sI1246
V\u5c6f
sI1247
V\u5f13
sI1248
V\u608c
sI1249
V\u6577
sI1250
V\u6c99
sI1251
V\u84b2
sI1252
V\u895f
sI1253
V\u60dc
sI1254
V\u6843
sI1255
V\u7f85
sI1256
V\u534a
sI1257
V\u57cb
sI1258
V\u5c24
sI1259
V\u5d17
sI1260
V\u5de8
sI1261
V\u6085
sI1262
V\u66dc
sI1263
V\u8292
sI1264
V\u8adc
sI1265
V\u8cbd
sI1266
V\u9704
sI1267
V\u559c
sI1268
V\u5c62
sI1269
V\u672b
sI1270
V\u914d
sI1271
V\u6627
sI1272
V\u7464
sI1273
V\u8eeb
sI1274
V\u5353
sI1275
V\u8033
sI1276
V\u8700
sI1277
V\u5ef7
sI1278
V\u62d4
sI1279
V\u7cb9
sI1280
V\u9022
sI1281
V\u6d66
sI1282
V\u79d1
sI1283
V\u83ca
sI1284
V\u8fd4
sI1285
V\u96c1
sI1286
V\u5410
sI1287
V\u5954
sI1288
V\u8b66
sI1289
V\u5bc7
sI1290
V\u74a7
sI1291
V\u7709
sI1292
V\u8aa1
sI1293
V\u958f
sI1294
V\u5854
sI1295
V\u5883
sI1296
V\u5dba
sI1297
V\u6208
sI1298
V\u6d1e
sI1299
V\u7d31
sI1300
V\u818f
sI1301
V\u96a7
sI1302
V\u500f
sI1303
V\u7d66
sI1304
V\u82d1
sI1305
V\u84bf
sI1306
V\u9699
sI1307
V\u5043
sI1308
V\u61b2
sI1309
V\u7bc6
sI1310
V\u652f
sI1311
V\u707d
sI1312
V\u7dcb
sI1313
V\u80cc
sI1314
V\u969b
sI1315
V\u4f46
sI1316
V\u5076
sI1317
V\u5c39
sI1318
V\u92b7
sI1319
V\u4f9b
sI1320
V\u6295
sI1321
V\u703e
sI1322
V\u8271
sI1323
V\u88f4
sI1324
V\u4f84
sI1325
V\u4fc3
sI1326
V\u5f81
sI1327
V\u7a80
sI1328
V\u7fd4
sI1329
V\u85a6
sI1330
V\u9f13
sI1331
V\u4ecb
sI1332
V\u50cf
sI1333
V\u59ec
sI1334
V\u5e36
sI1335
V\u665a
sI1336
V\u8d74
sI1337
V\u8fe5
sI1338
V\u980c
sI1339
V\u4f69
sI1340
V\u51cb
sI1341
V\u5354
sI1342
V\u5b30
sI1343
V\u8981
sI1344
V\u5ce8
sI1345
V\u6350
sI1346
V\u7d04
sI1347
V\u8212
sI1348
V\u849e
sI1349
V\u5b40
sI1350
V\u62f1
sI1351
V\u7586
sI1352
V\u8073
sI1353
V\u8a4e
sI1354
V\u5019
sI1355
V\u6212
sI1356
V\u6c7e
sI1357
V\u7d0d
sI1358
V\u8cb3
sI1359
V\u5c0e
sI1360
V\u5eec
sI1361
V\u66e0
sI1362
V\u7518
sI1363
V\u8c6a
sI1364
V\u961c
sI1365
V\u5960
sI1366
V\u62db
sI1367
V\u7db8
sI1368
V\u91ab
sI1369
V\u99a5
sI1370
V\u596a
sI1371
V\u5edf
sI1372
V\u6daf
sI1373
V\u7af6
sI1374
V\u7b60
sI1375
V\u98fe
sI1376
V\u9f52
sI1377
V\u78a7
sI1378
V\u84fc
sI1379
V\u8559
sI1380
V\u4fef
sI1381
V\u54bd
sI1382
V\u690d
sI1383
V\u761e
sI1384
V\u837c
sI1385
V\u615a
sI1386
V\u7165
sI1387
V\u77e9
sI1388
V\u793e
sI1389
V\u5049
sI1390
V\u8d64
sI1391
V\u9285
sI1392
V\u6191
sI1393
V\u6ed4
sI1394
V\u706b
sI1395
V\u742c
sI1396
V\u99ae
sI1397
V\u9ece
sI1398
V\u9ed8
sI1399
V\u5e02
sI1400
V\u5faa
sI1401
V\u7405
sI1402
V\u8036
sI1403
V\u805a
sI1404
V\u541f
sI1405
V\u8862
sI1406
V\u5b55
sI1407
V\u758a
sI1408
V\u8b20
sI1409
V\u9a4d
sI1410
V\u525b
sI1411
V\u6700
sI1412
V\u6b86
sI1413
V\u6c11
sI1414
V\u7e82
sI1415
V\u91c7
sI1416
V\u96fb
sI1417
V\u51cc
sI1418
V\u6232
sI1419
V\u7ffb
sI1420
V\u8a9e
sI1421
V\u9bae
sI1422
V\u5713
sI1423
V\u5a5a
sI1424
V\u5e55
sI1425
V\u7591
sI1426
V\u8521
sI1427
V\u7db1
sI1428
V\u8087
sI1429
V\u994b
sI1430
V\u9a57
sI1431
V\u9e7f
sI1432
V\u501a
sI1433
V\u53cd
sI1434
V\u651d
sI1435
V\u65ec
sI1436
V\u6f5e
sI1437
V\u7a79
sI1438
V\u7d71
sI1439
V\u852d
sI1440
V\u8654
sI1441
V\u8f1f
sI1442
V\u95ab
sI1443
V\u9ebe
sI1444
V\u5db7
sI1445
V\u5e76
sI1446
V\u9839
sI1447
V\u5d69
sI1448
V\u7779
sI1449
V\u864e
sI1450
V\u9127
sI1451
V\u9a45
sI1452
V\u5074
sI1453
V\u768e
sI1454
V\u7891
sI1455
V\u7a1a
sI1456
V\u8a93
sI1457
V\u8a34
sI1458
V\u99d0
sI1459
V\u5967
sI1460
V\u675f
sI1461
V\u68ee
sI1462
V\u9707
sI1463
V\u5cb1
sI1464
V\u754c
sI1465
V\u7fdf
sI1466
V\u8a72
sI1467
V\u963f
sI1468
V\u9810
sI1469
V\u5546
sI1470
V\u5bee
sI1471
V\u5e25
sI1472
V\u6839
sI1473
V\u6cc1
sI1474
V\u6f58
sI1475
V\u8aaa
sI1476
V\u9662
sI1477
V\u9694
sI1478
V\u9700
sI1479
V\u5764
sI1480
V\u63d0
sI1481
V\u66ff
sI1482
V\u6a21
sI1483
V\u6e24
sI1484
V\u7a0b
sI1485
V\u7dba
sI1486
V\u8377
sI1487
V\u96f6
sI1488
V\u99b4
sI1489
V\u5e33
sI1490
V\u5ea7
sI1491
V\u708e
sI1492
V\u7a3d
sI1493
V\u7d33
sI1494
V\u807f
sI1495
V\u8543
sI1496
V\u906d
sI1497
V\u92d2
sI1498
V\u98c4
sI1499
V\u53e3
sI1500
V\u5de1
sI1501
V\u859b
sI1502
V\u8ca1
sI1503
V\u5200
sI1504
V\u5439
sI1505
V\u6d89
sI1506
V\u98f2
sI1507
V\u504f
sI1508
V\u5cb8
sI1509
V\u6089
sI1510
V\u6ea2
sI1511
V\u7de3
sI1512
V\u8a55
sI1513
V\u9010
sI1514
V\u50e7
sI1515
V\u58df
sI1516
V\u6cef
sI1517
V\u7be4
sI1518
V\u7e69
sI1519
V\u9762
sI1520
V\u9eef
sI1521
V\u4fb5
sI1522
V\u514d
sI1523
V\u6339
sI1524
V\u6d69
sI1525
V\u7df4
sI1526
V\u8ad2
sI1527
V\u8c8c
sI1528
V\u8cc1
sI1529
V\u6247
sI1530
V\u62ab
sI1531
V\u63ee
sI1532
V\u6416
sI1533
V\u6c6a
sI1534
V\u6ec4
sI1535
V\u7d1b
sI1536
V\u89bd
sI1537
V\u8a08
sI1538
V\u9087
sI1539
V\u93d8
sI1540
V\u96de
sI1541
V\u4f3c
sI1542
V\u4fdf
sI1543
V\u53ec
sI1544
V\u6025
sI1545
V\u793a
sI1546
V\u8e48
sI1547
V\u8f45
sI1548
V\u99df
sI1549
V\u675e
sI1550
V\u6773
sI1551
V\u6de8
sI1552
V\u7e54
sI1553
V\u9644
sI1554
V\u9808
sI1555
V\u4e19
sI1556
V\u60e1
sI1557
V\u6167
sI1558
V\u62bc
sI1559
V\u65e6
sI1560
V\u6912
sI1561
V\u6979
sI1562
V\u88fe
sI1563
V\u8ca7
sI1564
V\u5cb5
sI1565
V\u6134
sI1566
V\u633d
sI1567
V\u67d3
sI1568
V\u6ce8
sI1569
V\u6ecb
sI1570
V\u745e
sI1571
V\u82df
sI1572
V\u8569
sI1573
V\u8fce
sI1574
V\u96f7
sI1575
V\u5978
sI1576
V\u5a7a
sI1577
V\u606a
sI1578
V\u620c
sI1579
V\u65d7
sI1580
V\u6850
sI1581
V\u6d87
sI1582
V\u6f3f
sI1583
V\u7259
sI1584
V\u7a76
sI1585
V\u7f55
sI1586
V\u84ec
sI1587
V\u88f3
sI1588
V\u8a0e
sI1589
V\u582f
sI1590
V\u595a
sI1591
V\u5bde
sI1592
V\u5e2d
sI1593
V\u8986
sI1594
V\u8a2d
sI1595
V\u907f
sI1596
V\u9738
sI1597
V\u52a9
sI1598
V\u52f5
sI1599
V\u5c3c
sI1600
V\u6396
sI1601
V\u66a8
sI1602
V\u6bd3
sI1603
V\u6cdb
sI1604
V\u8463
sI1605
V\u9006
sI1606
V\u9095
sI1607
V\u97f6
sI1608
V\u4e56
sI1609
V\u4f5b
sI1610
V\u5132
sI1611
V\u5bd3
sI1612
V\u6230
sI1613
V\u6291
sI1614
V\u6aec
sI1615
V\u9a43
sI1616
V\u4f10
sI1617
V\u52e2
sI1618
V\u5c3a
sI1619
V\u5eab
sI1620
V\u63a7
sI1621
V\u6cbb
sI1622
V\u6f20
sI1623
V\u7d72
sI1624
V\u84ee
sI1625
V\u5370
sI1626
V\u5785
sI1627
V\u5b7a
sI1628
V\u6064
sI1629
V\u6127
sI1630
V\u6536
sI1631
V\u6cd7
sI1632
V\u6e2d
sI1633
V\u6e56
sI1634
V\u8870
sI1635
V\u889e
sI1636
V\u4e88
sI1637
V\u5114
sI1638
V\u6602
sI1639
V\u66f3
sI1640
V\u67f4
sI1641
V\u6f33
sI1642
V\u7d22
sI1643
V\u851a
sI1644
V\u89ba
sI1645
V\u8c9d
sI1646
V\u5983
sI1647
V\u5a25
sI1648
V\u5cd9
sI1649
V\u64da
sI1650
V\u6df9
sI1651
V\u718a
sI1652
V\u754f
sI1653
V\u75c5
sI1654
V\u788e
sI1655
V\u8305
sI1656
V\u85f9
sI1657
V\u9044
sI1658
V\u537b
sI1659
V\u55ac
sI1660
V\u6691
sI1661
V\u76e4
sI1662
V\u8cca
sI1663
V\u907c
sI1664
V\u9817
sI1665
V\u4f47
sI1666
V\u5a9b
sI1667
V\u6885
sI1668
V\u9df9
sI1669
V\u5404
sI1670
V\u59ca
sI1671
V\u5fcd
sI1672
V\u63e1
sI1673
V\u768b
sI1674
V\u8912
sI1675
V\u9c57
sI1676
V\u9e7d
sI1677
V\u5834
sI1678
V\u59a3
sI1679
V\u6234
sI1680
V\u6795
sI1681
V\u6e5b
sI1682
V\u6fc0
sI1683
V\u6ff1
sI1684
V\u722d
sI1685
V\u8c6b
sI1686
V\u96dc
sI1687
V\u99d2
sI1688
V\u51a4
sI1689
V\u5339
sI1690
V\u5442
sI1691
V\u5bb5
sI1692
V\u621f
sI1693
V\u664f
sI1694
V\u6a13
sI1695
V\u6bdb
sI1696
V\u701b
sI1697
V\u81e7
sI1698
V\u8b80
sI1699
V\u8fb1
sI1700
V\u9632
sI1701
V\u96c9
sI1702
V\u99ad
sI1703
V\u5fdd
sI1704
V\u6bd7
sI1705
V\u6e2c
sI1706
V\u756b
sI1707
V\u7b95
sI1708
V\u8896
sI1709
V\u8b1a
sI1710
V\u8cbf
sI1711
V\u513c
sI1712
V\u5340
sI1713
V\u566b
sI1714
V\u5e1b
sI1715
V\u64d7
sI1716
V\u66a2
sI1717
V\u8cf4
sI1718
V\u9f4b
sI1719
V\u52c1
sI1720
V\u59b9
sI1721
V\u6b47
sI1722
V\u6e6f
sI1723
V\u85b0
sI1724
V\u9621
sI1725
V\u9685
sI1726
V\u9a01
sI1727
V\u5f64
sI1728
V\u6bd2
sI1729
V\u7587
sI1730
V\u812b
sI1731
V\u983b
sI1732
V\u5305
sI1733
V\u5be1
sI1734
V\u6c7a
sI1735
V\u6e3e
sI1736
V\u78a9
sI1737
V\u843c
sI1738
V\u86c7
sI1739
V\u50f9
sI1740
V\u58fa
sI1741
V\u596e
sI1742
V\u5c7a
sI1743
V\u6697
sI1744
V\u67ef
sI1745
V\u6977
sI1746
V\u6c88
sI1747
V\u7dd7
sI1748
V\u821e
sI1749
V\u9072
sI1750
V\u54e5
sI1751
V\u66ab
sI1752
V\u68fa
sI1753
V\u6bb5
sI1754
V\u6c74
sI1755
V\u6f14
sI1756
V\u7252
sI1757
V\u759a
sI1758
V\u7f3a
sI1759
V\u8e35
sI1760
V\u5203
sI1761
V\u5323
sI1762
V\u53e2
sI1763
V\u63f4
sI1764
V\u6551
sI1765
V\u6575
sI1766
V\u66b4
sI1767
V\u6ed5
sI1768
V\u757f
sI1769
V\u900d
sI1770
V\u57cf
sI1771
V\u5ed3
sI1772
V\u5fb9
sI1773
V\u72c0
sI1774
V\u73a9
sI1775
V\u7bad
sI1776
V\u8aeb
sI1777
V\u5272
sI1778
V\u5f3c
sI1779
V\u61cb
sI1780
V\u6383
sI1781
V\u63be
sI1782
V\u67e9
sI1783
V\u6b12
sI1784
V\u6c82
sI1785
V\u6d6a
sI1786
V\u7051
sI1787
V\u7538
sI1788
V\u7a37
sI1789
V\u7da0
sI1790
V\u81e5
sI1791
V\u840a
sI1792
V\u88c2
sI1793
V\u8a2a
sI1794
V\u8feb
sI1795
V\u9642
sI1796
V\u9813
sI1797
V\u99a8
sI1798
V\u58f9
sI1799
V\u5948
sI1800
V\u5bb4
sI1801
V\u5bb8
sI1802
V\u5c4f
sI1803
V\u620d
sI1804
V\u6297
sI1805
V\u64c1
sI1806
V\u66f7
sI1807
V\u6848
sI1808
V\u6fef
sI1809
V\u707c
sI1810
V\u7433
sI1811
V\u7737
sI1812
V\u77dc
sI1813
V\u7941
sI1814
V\u7b75
sI1815
V\u8086
sI1816
V\u8aa6
sI1817
V\u5473
sI1818
V\u5beb
sI1819
V\u6028
sI1820
V\u6367
sI1821
V\u6c90
sI1822
V\u6c9b
sI1823
V\u7bb4
sI1824
V\u7d62
sI1825
V\u7ddd
sI1826
V\u7def
sI1827
V\u7f70
sI1828
V\u7f8a
sI1829
V\u85c9
sI1830
V\u88d8
sI1831
V\u9063
sI1832
V\u96aa
sI1833
V\u4f0d
sI1834
V\u53ea
sI1835
V\u64ec
sI1836
V\u683c
sI1837
V\u7aba
sI1838
V\u7d8f
sI1839
V\u7d9c
sI1840
V\u7f79
sI1841
V\u858a
sI1842
V\u89d2
sI1843
V\u95e1
sI1844
V\u9769
sI1845
V\u4e95
sI1846
V\u58d8
sI1847
V\u5a23
sI1848
V\u6f6d
sI1849
V\u756a
sI1850
V\u8b59
sI1851
V\u8dbe
sI1852
V\u8ff7
sI1853
V\u9594
sI1854
V\u4f4f
sI1855
V\u5287
sI1856
V\u5dee
sI1857
V\u5f04
sI1858
V\u6043
sI1859
V\u6170
sI1860
V\u6b84
sI1861
V\u81fb
sI1862
V\u83aa
sI1863
V\u845b
sI1864
V\u582a
sI1865
V\u59d2
sI1866
V\u6574
sI1867
V\u6a3d
sI1868
V\u6eef
sI1869
V\u803f
sI1870
V\u8e64
sI1871
V\u9041
sI1872
V\u98c6
sI1873
V\u53b2
sI1874
V\u5c4b
sI1875
V\u5dbd
sI1876
V\u6a0a
sI1877
V\u714c
sI1878
V\u7522
sI1879
V\u7f88
sI1880
V\u97de
sI1881
V\u4ede
sI1882
V\u5275
sI1883
V\u52ff
sI1884
V\u55ae
sI1885
V\u58c7
sI1886
V\u5be5
sI1887
V\u5f91
sI1888
V\u606c
sI1889
V\u6249
sI1890
V\u6582
sI1891
V\u6978
sI1892
V\u6986
sI1893
V\u7f44
sI1894
V\u8178
sI1895
V\u8662
sI1896
V\u884d
sI1897
V\u8b28
sI1898
V\u90aa
sI1899
V\u9134
sI1900
V\u9ce7
sI1901
V\u5256
sI1902
V\u589f
sI1903
V\u5dcd
sI1904
V\u6df7
sI1905
V\u6e1a
sI1906
V\u6fee
sI1907
V\u7633
sI1908
V\u7d05
sI1909
V\u80a5
sI1910
V\u963b
sI1911
V\u97a0
sI1912
V\u9b3c
sI1913
V\u4e9f
sI1914
V\u51dc
sI1915
V\u59da
sI1916
V\u5cab
sI1917
V\u6597
sI1918
V\u734e
sI1919
V\u7db0
sI1920
V\u7dc7
sI1921
V\u8aa8
sI1922
V\u8c82
sI1923
V\u9119
sI1924
V\u4ec7
sI1925
V\u4f94
sI1926
V\u508d
sI1927
V\u5b9b
sI1928
V\u6065
sI1929
V\u67d0
sI1930
V\u6c1b
sI1931
V\u6fb9
sI1932
V\u722a
sI1933
V\u731b
sI1934
V\u7d43
sI1935
V\u7f6a
sI1936
V\u82de
sI1937
V\u865c
sI1938
V\u9177
sI1939
V\u9435
sI1940
V\u4e08
sI1941
V\u50da
sI1942
V\u5360
sI1943
V\u53e9
sI1944
V\u5955
sI1945
V\u6200
sI1946
V\u639b
sI1947
V\u63a2
sI1948
V\u6853
sI1949
V\u6a4b
sI1950
V\u6cbc
sI1951
V\u6e1d
sI1952
V\u6e98
sI1953
V\u6ed1
sI1954
V\u7a2e
sI1955
V\u7b97
sI1956
V\u7ff9
sI1957
V\u856a
sI1958
V\u8a23
sI1959
V\u8e8d
sI1960
V\u8f2f
sI1961
V\u9264
sI1962
V\u9d72
sI1963
V\u513b
sI1964
V\u65ac
sI1965
V\u6b3a
sI1966
V\u7344
sI1967
V\u8679
sI1968
V\u8930
sI1969
V\u8e34
sI1970
V\u557c
sI1971
V\u63aa
sI1972
V\u64fe
sI1973
V\u6790
sI1974
V\u6a1e
sI1975
V\u6d0b
sI1976
V\u7aca
sI1977
V\u7ae6
sI1978
V\u7ff3
sI1979
V\u8c79
sI1980
V\u8e85
sI1981
V\u8f42
sI1982
V\u9d6c
sI1983
V\u53ad
sI1984
V\u5ae1
sI1985
V\u5c91
sI1986
V\u5df7
sI1987
V\u5f17
sI1988
V\u62ec
sI1989
V\u68df
sI1990
V\u6a80
sI1991
V\u6b23
sI1992
V\u6beb
sI1993
V\u6d79
sI1994
V\u72c4
sI1995
V\u7bc7
sI1996
V\u8277
sI1997
V\u84b8
sI1998
V\u9663
sI1999
V\u9824
sI2000
V\u50c9
sI2001
V\u562f
sI2002
V\u5718
sI2003
V\u5880
sI2004
V\u5deb
sI2005
V\u5f48
sI2006
V\u5fd2
sI2007
V\u6dfc
sI2008
V\u7070
sI2009
V\u7e61
sI2010
V\u8aed
sI2011
V\u8b01
sI2012
V\u8b1b
sI2013
V\u914c
sI2014
V\u9695
sI2015
V\u9756
sI2016
V\u980a
sI2017
V\u9aee
sI2018
V\u5dfe
sI2019
V\u6d17
sI2020
V\u7246
sI2021
V\u7525
sI2022
V\u7620
sI2023
V\u7957
sI2024
V\u7a88
sI2025
V\u81da
sI2026
V\u85cd
sI2027
V\u863f
sI2028
V\u88c1
sI2029
V\u8da3
sI2030
V\u8f29
sI2031
V\u905e
sI2032
V\u90a2
sI2033
V\u90b5
sI2034
V\u964c
sI2035
V\u9a2b
sI2036
V\u4eb3
sI2037
V\u5230
sI2038
V\u540e
sI2039
V\u5426
sI2040
V\u55bb
sI2041
V\u5b69
sI2042
V\u5df4
sI2043
V\u6055
sI2044
V\u6dc4
sI2045
V\u78da
sI2046
V\u7d30
sI2047
V\u8403
sI2048
V\u8afe
sI2049
V\u9245
sI2050
V\u96b8
sI2051
V\u970f
sI2052
V\u982d
sI2053
V\u5448
sI2054
V\u70b3
sI2055
V\u77ef
sI2056
V\u7834
sI2057
V\u7948
sI2058
V\u7c4c
sI2059
V\u7e8c
sI2060
V\u8093
sI2061
V\u8fc5
sI2062
V\u916c
sI2063
V\u9178
sI2064
V\u9952
sI2065
V\u9a42
sI2066
V\u585a
sI2067
V\u5974
sI2068
V\u5be9
sI2069
V\u5bf0
sI2070
V\u5eca
sI2071
V\u5f87
sI2072
V\u72af
sI2073
V\u7635
sI2074
V\u79a6
sI2075
V\u79b9
sI2076
V\u7c2b
sI2077
V\u84c4
sI2078
V\u8881
sI2079
V\u8d0d
sI2080
V\u901f
sI2081
V\u90b8
sI2082
V\u95a5
sI2083
V\u611a
sI2084
V\u6248
sI2085
V\u62c2
sI2086
V\u63d6
sI2087
V\u676d
sI2088
V\u6e25
sI2089
V\u6e9f
sI2090
V\u7e11
sI2091
V\u8179
sI2092
V\u8ce4
sI2093
V\u90a3
sI2094
V\u9102
sI2095
V\u9a64
sI2096
V\u9f60
sI2097
V\u4ed7
sI2098
V\u4fb6
sI2099
V\u5ac1
sI2100
V\u6222
sI2101
V\u66e6
sI2102
V\u7169
sI2103
V\u790e
sI2104
V\u798e
sI2105
V\u819d
sI2106
V\u9aeb
sI2107
V\u4e4f
sI2108
V\u5a29
sI2109
V\u5ee2
sI2110
V\u6020
sI2111
V\u6042
sI2112
V\u614b
sI2113
V\u6168
sI2114
V\u6c72
sI2115
V\u7247
sI2116
V\u7504
sI2117
V\u7cb2
sI2118
V\u8f26
sI2119
V\u904d
sI2120
V\u9083
sI2121
V\u95cb
sI2122
V\u4e15
sI2123
V\u524a
sI2124
V\u526a
sI2125
V\u58de
sI2126
V\u5bb3
sI2127
V\u6062
sI2128
V\u614d
sI2129
V\u79bd
sI2130
V\u7e08
sI2131
V\u7fe9
sI2132
V\u8a79
sI2133
V\u8fe8
sI2134
V\u5026
sI2135
V\u5137
sI2136
V\u5f8a
sI2137
V\u6108
sI2138
V\u653b
sI2139
V\u666e
sI2140
V\u68a7
sI2141
V\u6d63
sI2142
V\u71c8
sI2143
V\u7c9f
sI2144
V\u7d06
sI2145
V\u7fee
sI2146
V\u87fb
sI2147
V\u9210
sI2148
V\u9b23
sI2149
V\u4f8b
sI2150
V\u50c5
sI2151
V\u51f1
sI2152
V\u52ac
sI2153
V\u52ad
sI2154
V\u640d
sI2155
V\u6664
sI2156
V\u67af
sI2157
V\u6b3e
sI2158
V\u6b83
sI2159
V\u6eaa
sI2160
V\u7248
sI2161
V\u7a0d
sI2162
V\u7b11
sI2163
V\u7c73
sI2164
V\u7e09
sI2165
V\u7e47
sI2166
V\u8174
sI2167
V\u8cc0
sI2168
V\u9112
sI2169
V\u99ff
sI2170
V\u9edc
sI2171
V\u53eb
sI2172
V\u5703
sI2173
V\u5bf8
sI2174
V\u5f82
sI2175
V\u6e20
sI2176
V\u71e6
sI2177
V\u7470
sI2178
V\u76dc
sI2179
V\u7a95
sI2180
V\u7b33
sI2181
V\u8089
sI2182
V\u81b3
sI2183
V\u8629
sI2184
V\u8a63
sI2185
V\u8c4e
sI2186
V\u990c
sI2187
V\u501f
sI2188
V\u51b6
sI2189
V\u51c6
sI2190
V\u5b5c
sI2191
V\u6c57
sI2192
V\u725f
sI2193
V\u7960
sI2194
V\u7fb8
sI2195
V\u8204
sI2196
V\u821c
sI2197
V\u8c46
sI2198
V\u92b3
sI2199
V\u52c9
sI2200
V\u52d6
sI2201
V\u5996
sI2202
V\u60d1
sI2203
V\u61a4
sI2204
V\u6377
sI2205
V\u65c1
sI2206
V\u68e3
sI2207
V\u6dbf
sI2208
V\u6fe4
sI2209
V\u711a
sI2210
V\u75b9
sI2211
V\u773a
sI2212
V\u840e
sI2213
V\u8877
sI2214
V\u89f8
sI2215
V\u8a62
sI2216
V\u8fa8
sI2217
V\u4e5e
sI2218
V\u52f8
sI2219
V\u53e5
sI2220
V\u57a3
sI2221
V\u5d47
sI2222
V\u5f98
sI2223
V\u6019
sI2224
V\u6309
sI2225
V\u640f
sI2226
V\u6687
sI2227
V\u67b6
sI2228
V\u6c83
sI2229
V\u6d5a
sI2230
V\u6d88
sI2231
V\u733f
sI2232
V\u73c9
sI2233
V\u75fc
sI2234
V\u7814
sI2235
V\u792a
sI2236
V\u7ac7
sI2237
V\u7d79
sI2238
V\u8015
sI2239
V\u8202
sI2240
V\u8abc
sI2241
V\u8b49
sI2242
V\u91c1
sI2243
V\u962a
sI2244
V\u507d
sI2245
V\u54a8
sI2246
V\u5a1b
sI2247
V\u6263
sI2248
V\u6392
sI2249
V\u7489
sI2250
V\u7c89
sI2251
V\u8564
sI2252
V\u887f
sI2253
V\u978f
sI2254
V\u5401
sI2255
V\u5b5a
sI2256
V\u5da0
sI2257
V\u60a3
sI2258
V\u6106
sI2259
V\u63c6
sI2260
V\u6677
sI2261
V\u672d
sI2262
V\u6df5
sI2263
V\u7006
sI2264
V\u72ce
sI2265
V\u7707
sI2266
V\u80b1
sI2267
V\u8f4d
sI2268
V\u904f
sI2269
V\u91b4
sI2270
V\u96b0
sI2271
V\u970d
sI2272
V\u4e9e
sI2273
V\u5c60
sI2274
V\u5c64
sI2275
V\u5e87
sI2276
V\u5ea0
sI2277
V\u6ba4
sI2278
V\u6ce5
sI2279
V\u6f01
sI2280
V\u6fc1
sI2281
V\u719f
sI2282
V\u72fc
sI2283
V\u7579
sI2284
V\u777f
sI2285
V\u77e2
sI2286
V\u7fa8
sI2287
V\u8ab2
sI2288
V\u8d70
sI2289
V\u921e
sI2290
V\u9677
sI2291
V\u9ae6
sI2292
V\u53db
sI2293
V\u541e
sI2294
V\u58ae
sI2295
V\u58c1
sI2296
V\u61c7
sI2297
V\u6b96
sI2298
V\u6f97
sI2299
V\u72d0
sI2300
V\u740a
sI2301
V\u7bc9
sI2302
V\u7fe6
sI2303
V\u85d0
sI2304
V\u8af7
sI2305
V\u9106
sI2306
V\u93e4
sI2307
V\u9ed4
sI2308
V\u4f4e
sI2309
V\u5154
sI2310
V\u55a7
sI2311
V\u56f0
sI2312
V\u5f0a
sI2313
V\u6e58
sI2314
V\u7258
sI2315
V\u7469
sI2316
V\u7dec
sI2317
V\u8a85
sI2318
V\u8b5c
sI2319
V\u8caa
sI2320
V\u8e4a
sI2321
V\u9a5b
sI2322
V\u50ac
sI2323
V\u50b2
sI2324
V\u5189
sI2325
V\u5320
sI2326
V\u60fb
sI2327
V\u6493
sI2328
V\u658c
sI2329
V\u69d0
sI2330
V\u727d
sI2331
V\u7693
sI2332
V\u84cd
sI2333
V\u8983
sI2334
V\u8fc4
sI2335
V\u9249
sI2336
V\u932f
sI2337
V\u9853
sI2338
V\u4e86
sI2339
V\u5471
sI2340
V\u56c2
sI2341
V\u5f79
sI2342
V\u5ffb
sI2343
V\u6012
sI2344
V\u601b
sI2345
V\u6469
sI2346
V\u651c
sI2347
V\u6a84
sI2348
V\u6d78
sI2349
V\u6e6e
sI2350
V\u78e8
sI2351
V\u83e9
sI2352
V\u887e
sI2353
V\u8a1f
sI2354
V\u8cb6
sI2355
V\u8d16
sI2356
V\u8f38
sI2357
V\u91dd
sI2358
V\u5636
sI2359
V\u5a7f
sI2360
V\u5dd2
sI2361
V\u5fc9
sI2362
V\u619a
sI2363
V\u63db
sI2364
V\u66e9
sI2365
V\u6cbe
sI2366
V\u6e19
sI2367
V\u704c
sI2368
V\u745a
sI2369
V\u7554
sI2370
V\u78a3
sI2371
V\u795d
sI2372
V\u7dbd
sI2373
V\u7e98
sI2374
V\u804a
sI2375
V\u809d
sI2376
V\u80a1
sI2377
V\u81d8
sI2378
V\u82bb
sI2379
V\u84c0
sI2380
V\u8523
sI2381
V\u8913
sI2382
V\u8aa5
sI2383
V\u8b2c
sI2384
V\u598d
sI2385
V\u5f27
sI2386
V\u5fcc
sI2387
V\u615d
sI2388
V\u6789
sI2389
V\u6982
sI2390
V\u6f23
sI2391
V\u4e4d
sI2392
V\u4ed8
sI2393
V\u501c
sI2394
V\u5de7
sI2395
V\u65c4
sI2396
V\u65c6
sI2397
V\u65d2
sI2398
V\u6db5
sI2399
V\u7378
sI2400
V\u745c
sI2401
V\u7db2
sI2402
V\u7df1
sI2403
V\u8fe4
sI2404
V\u90e2
sI2405
V\u9293
sI2406
V\u964b
sI2407
V\u9a0f
sI2408
V\u9a5f
sI2409
V\u9a6a
sI2410
V\u9f94
sI2411
V\u5766
sI2412
V\u5b7d
sI2413
V\u5e79
sI2414
V\u6897
sI2415
V\u749c
sI2416
V\u75b2
sI2417
V\u7dd8
sI2418
V\u80a9
sI2419
V\u85aa
sI2420
V\u86df
sI2421
V\u8aee
sI2422
V\u8ec0
sI2423
V\u8f12
sI2424
V\u95d4
sI2425
V\u968a
sI2426
V\u9b41
sI2427
V\u9ed1
sI2428
V\u4fce
sI2429
V\u51b7
sI2430
V\u51f0
sI2431
V\u5331
sI2432
V\u5aaf
sI2433
V\u5c8c
sI2434
V\u5e44
sI2435
V\u6094
sI2436
V\u65c3
sI2437
V\u68e0
sI2438
V\u6b37
sI2439
V\u6e9d
sI2440
V\u72c2
sI2441
V\u7375
sI2442
V\u74dc
sI2443
V\u7b19
sI2444
V\u7e1f
sI2445
V\u7f9e
sI2446
V\u7fe5
sI2447
V\u83dc
sI2448
V\u866f
sI2449
V\u8ea1
sI2450
V\u962e
sI2451
V\u9a55
sI2452
V\u9ce9
sI2453
V\u4fe0
sI2454
V\u4ff8
sI2455
V\u5a9a
sI2456
V\u5d16
sI2457
V\u61ab
sI2458
V\u62bd
sI2459
V\u62d3
sI2460
V\u6557
sI2461
V\u66c4
sI2462
V\u6968
sI2463
V\u69e8
sI2464
V\u6de1
sI2465
V\u7166
sI2466
V\u7199
sI2467
V\u72ac
sI2468
V\u74bd
sI2469
V\u76df
sI2470
V\u7de0
sI2471
V\u8cbb
sI2472
V\u9591
sI2473
V\u9ebb
sI2474
V\u9efb
sI2475
V\u9f54
sI2476
V\u4f09
sI2477
V\u533f
sI2478
V\u548e
sI2479
V\u570d
sI2480
V\u57c3
sI2481
V\u5c46
sI2482
V\u5dfd
sI2483
V\u5e8a
sI2484
V\u60b4
sI2485
V\u61c8
sI2486
V\u622a
sI2487
V\u6258
sI2488
V\u677f
sI2489
V\u6b82
sI2490
V\u6f2b
sI2491
V\u7126
sI2492
V\u721b
sI2493
V\u7256
sI2494
V\u749e
sI2495
V\u7b54
sI2496
V\u7fcc
sI2497
V\u8006
sI2498
V\u80ce
sI2499
V\u860b
sI2500
V\u8757
sI2501
V\u8831
sI2502
V\u883b
sI2503
V\u89b2
sI2504
V\u8ca8
sI2505
V\u8fea
sI2506
V\u9015
sI2507
V\u925e
sI2508
V\u9322
sI2509
V\u947e
sI2510
V\u95bb
sI2511
V\u5104
sI2512
V\u52c3
sI2513
V\u52fe
sI2514
V\u5885
sI2515
V\u58d9
sI2516
V\u5a46
sI2517
V\u5c4d
sI2518
V\u6bab
sI2519
V\u6ccc
sI2520
V\u6d59
sI2521
V\u6f2a
sI2522
V\u7162
sI2523
V\u758b
sI2524
V\u76e5
sI2525
V\u7d1a
sI2526
V\u803d
sI2527
V\u8170
sI2528
V\u8511
sI2529
V\u8604
sI2530
V\u8857
sI2531
V\u8a6e
sI2532
V\u8b10
sI2533
V\u9654
sI2534
V\u9d1b
sI2535
V\u4f38
sI2536
V\u52ab
sI2537
V\u5962
sI2538
V\u5984
sI2539
V\u5a09
sI2540
V\u5c63
sI2541
V\u5f5d
sI2542
V\u6059
sI2543
V\u6084
sI2544
V\u623e
sI2545
V\u62d8
sI2546
V\u679a
sI2547
V\u6c5c
sI2548
V\u6ceb
sI2549
V\u6db2
sI2550
V\u6f02
sI2551
V\u6f88
sI2552
V\u701d
sI2553
V\u71be
sI2554
V\u742e
sI2555
V\u78ca
sI2556
V\u7a05
sI2557
V\u7a1c
sI2558
V\u7db4
sI2559
V\u7e3b
sI2560
V\u81bd
sI2561
V\u8513
sI2562
V\u8fed
sI2563
V\u9036
sI2564
V\u9354
sI2565
V\u95e5
sI2566
V\u96bc
sI2567
V\u99d9
sI2568
V\u9efc
sI2569
V\u4f3d
sI2570
V\u51fd
sI2571
V\u5310
sI2572
V\u55dc
sI2573
V\u584a
sI2574
V\u5e7b
sI2575
V\u5e95
sI2576
V\u6599
sI2577
V\u65a7
sI2578
V\u6a11
sI2579
V\u6c33
sI2580
V\u6f0f
sI2581
V\u7296
sI2582
V\u7422
sI2583
V\u7684
sI2584
V\u770b
sI2585
V\u7a81
sI2586
V\u7a9f
sI2587
V\u7e96
sI2588
V\u80f8
sI2589
V\u81a0
sI2590
V\u840f
sI2591
V\u854a
sI2592
V\u8941
sI2593
V\u8f61
sI2594
V\u9ab8
sI2595
V\u9bc1
sI2596
V\u5029
sI2597
V\u563b
sI2598
V\u59c6
sI2599
V\u6177
sI2600
V\u62ef
sI2601
V\u6476
sI2602
V\u6556
sI2603
V\u6cb9
sI2604
V\u6fe1
sI2605
V\u7280
sI2606
V\u73e5
sI2607
V\u76cd
sI2608
V\u77da
sI2609
V\u7bcb
sI2610
V\u7de9
sI2611
V\u7e6b
sI2612
V\u8058
sI2613
V\u8340
sI2614
V\u88cf
sI2615
V\u8a98
sI2616
V\u8b2b
sI2617
V\u8c73
sI2618
V\u8cfb
sI2619
V\u9460
sI2620
V\u95be
sI2621
V\u9f90
sI2622
V\u4e92
sI2623
V\u5115
sI2624
V\u5f14
sI2625
V\u6128
sI2626
V\u6adb
sI2627
V\u6d74
sI2628
V\u73b7
sI2629
V\u7403
sI2630
V\u77b0
sI2631
V\u7a14
sI2632
V\u7bc1
sI2633
V\u7c1f
sI2634
V\u7fc1
sI2635
V\u80d9
sI2636
V\u82eb
sI2637
V\u82f4
sI2638
V\u83df
sI2639
V\u83f2
sI2640
V\u840b
sI2641
V\u840c
sI2642
V\u853d
sI2643
V\u8cba
sI2644
V\u8d73
sI2645
V\u8e47
sI2646
V\u8efc
sI2647
V\u9051
sI2648
V\u98af
sI2649
V\u9a16
sI2650
V\u9be8
sI2651
V\u9e93
sI2652
V\u5192
sI2653
V\u52df
sI2654
V\u530d
sI2655
V\u56ff
sI2656
V\u58da
sI2657
V\u5ee1
sI2658
V\u5fbc
sI2659
V\u6190
sI2660
V\u64a4
sI2661
V\u65ed
sI2662
V\u67d2
sI2663
V\u6fa0
sI2664
V\u6feb
sI2665
V\u7262
sI2666
V\u73fe
sI2667
V\u75ca
sI2668
V\u7642
sI2669
V\u80e5
sI2670
V\u822c
sI2671
V\u89f4
sI2672
V\u8a1b
sI2673
V\u8b07
sI2674
V\u8b5a
sI2675
V\u8e55
sI2676
V\u8ef8
sI2677
V\u9003
sI2678
V\u925b
sI2679
V\u947f
sI2680
V\u9650
sI2681
V\u965b
sI2682
V\u96c0
sI2683
V\u9daf
sI2684
V\u9f20
sI2685
V\u4e73
sI2686
V\u500d
sI2687
V\u5ebe
sI2688
V\u5f6c
sI2689
V\u60b6
sI2690
V\u6137
sI2691
V\u693f
sI2692
V\u6b59
sI2693
V\u6b89
sI2694
V\u6cca
sI2695
V\u6d32
sI2696
V\u6e67
sI2697
V\u6ec1
sI2698
V\u71ee
sI2699
V\u755d
sI2700
V\u81c2
sI2701
V\u827e
sI2702
V\u87f2
sI2703
V\u8cb7
sI2704
V\u8f44
sI2705
V\u8fe2
sI2706
V\u909b
sI2707
V\u95c3
sI2708
V\u9744
sI2709
V\u99ed
sI2710
V\u9ad3
sI2711
V\u9b25
sI2712
V\u5531
sI2713
V\u56ca
sI2714
V\u5914
sI2715
V\u599d
sI2716
V\u5bd0
sI2717
V\u5c51
sI2718
V\u60d5
sI2719
V\u62d2
sI2720
V\u63a1
sI2721
V\u64d2
sI2722
V\u677c
sI2723
V\u6c94
sI2724
V\u6d85
sI2725
V\u7455
sI2726
V\u74a3
sI2727
V\u7601
sI2728
V\u76fe
sI2729
V\u7791
sI2730
V\u7a7f
sI2731
V\u7bea
sI2732
V\u7c60
sI2733
V\u7e55
sI2734
V\u7e5e
sI2735
V\u7e8a
sI2736
V\u819a
sI2737
V\u83bd
sI2738
V\u85ea
sI2739
V\u8e8b
sI2740
V\u8ed4
sI2741
V\u8ff4
sI2742
V\u905c
sI2743
V\u9438
sI2744
V\u98bc
sI2745
V\u59e8
sI2746
V\u5ca1
sI2747
V\u5d26
sI2748
V\u5e1a
sI2749
V\u62b5
sI2750
V\u6522
sI2751
V\u656b
sI2752
V\u659c
sI2753
V\u67c4
sI2754
V\u6cae
sI2755
V\u6cb8
sI2756
V\u6cbf
sI2757
V\u6dfa
sI2758
V\u6e21
sI2759
V\u6ecf
sI2760
V\u6f06
sI2761
V\u70f9
sI2762
V\u7149
sI2763
V\u741b
sI2764
V\u7704
sI2765
V\u78ba
sI2766
V\u795f
sI2767
V\u79b1
sI2768
V\u7bb1
sI2769
V\u7ce7
sI2770
V\u7cfe
sI2771
V\u7fb2
sI2772
V\u821b
sI2773
V\u8ae4
sI2774
V\u8b9c
sI2775
V\u8f05
sI2776
V\u9031
sI2777
V\u903c
sI2778
V\u9080
sI2779
V\u9463
sI2780
V\u95ac
sI2781
V\u99e2
sI2782
V\u9b22
sI2783
V\u9bc9
sI2784
V\u4f83
sI2785
V\u503c
sI2786
V\u5819
sI2787
V\u5a92
sI2788
V\u5ab2
sI2789
V\u5b99
sI2790
V\u5cfd
sI2791
V\u5ec2
sI2792
V\u5f4e
sI2793
V\u5fe4
sI2794
V\u62d6
sI2795
V\u665f
sI2796
V\u699b
sI2797
V\u699c
sI2798
V\u6c13
sI2799
V\u6c24
sI2800
V\u6c76
sI2801
V\u6ecc
sI2802
V\u6f70
sI2803
V\u705e
sI2804
V\u715e
sI2805
V\u7825
sI2806
V\u7d08
sI2807
V\u7d6e
sI2808
V\u82d5
sI2809
V\u8650
sI2810
V\u8882
sI2811
V\u8b33
sI2812
V\u8b9a
sI2813
V\u8c41
sI2814
V\u9016
sI2815
V\u9035
sI2816
V\u90df
sI2817
V\u91dc
sI2818
V\u96cc
sI2819
V\u4fde
sI2820
V\u502c
sI2821
V\u5162
sI2822
V\u572d
sI2823
V\u59dd
sI2824
V\u5a41
sI2825
V\u5f6a
sI2826
V\u617e
sI2827
V\u61b6
sI2828
V\u622e
sI2829
V\u633e
sI2830
V\u641c
sI2831
V\u65a5
sI2832
V\u6684
sI2833
V\u689f
sI2834
V\u6a58
sI2835
V\u6eba
sI2836
V\u733e
sI2837
V\u73ea
sI2838
V\u76ae
sI2839
V\u78d0
sI2840
V\u7967
sI2841
V\u79b0
sI2842
V\u7ac4
sI2843
V\u7c3d
sI2844
V\u7c50
sI2845
V\u7d19
sI2846
V\u7e1e
sI2847
V\u7e37
sI2848
V\u7f8c
sI2849
V\u7ff1
sI2850
V\u85a9
sI2851
V\u892b
sI2852
V\u8a25
sI2853
V\u8aa3
sI2854
V\u8ae6
sI2855
V\u8de8
sI2856
V\u91e3
sI2857
V\u9672
sI2858
V\u9688
sI2859
V\u9805
sI2860
V\u9ede
sI2861
V\u9f59
sI2862
V\u574e
sI2863
V\u592e
sI2864
V\u593e
sI2865
V\u5abe
sI2866
V\u5cf4
sI2867
V\u5f0b
sI2868
V\u676f
sI2869
V\u6775
sI2870
V\u6a38
sI2871
V\u6dc7
sI2872
V\u6e4d
sI2873
V\u6e96
sI2874
V\u701a
sI2875
V\u70fd
sI2876
V\u72a2
sI2877
V\u7658
sI2878
V\u78f7
sI2879
V\u795c
sI2880
V\u7da2
sI2881
V\u7f94
sI2882
V\u8102
sI2883
V\u82d2
sI2884
V\u8469
sI2885
V\u8473
sI2886
V\u852c
sI2887
V\u8a16
sI2888
V\u8a75
sI2889
V\u8c55
sI2890
V\u8cfe
sI2891
V\u90f4
sI2892
V\u93d7
sI2893
V\u95e2
sI2894
V\u96b3
sI2895
V\u9802
sI2896
V\u980e
sI2897
V\u5012
sI2898
V\u535e
sI2899
V\u5864
sI2900
V\u5c3e
sI2901
V\u5d50
sI2902
V\u5e61
sI2903
V\u5ff1
sI2904
V\u6607
sI2905
V\u6670
sI2906
V\u66d9
sI2907
V\u68b5
sI2908
V\u69bb
sI2909
V\u6abb
sI2910
V\u6d39
sI2911
V\u6e3a
sI2912
V\u6e4a
sI2913
V\u6e9c
sI2914
V\u6fa7
sI2915
V\u7487
sI2916
V\u763c
sI2917
V\u7df9
sI2918
V\u7faf
sI2919
V\u822a
sI2920
V\u85fa
sI2921
V\u8606
sI2922
V\u8839
sI2923
V\u887d
sI2924
V\u88e8
sI2925
V\u8efe
sI2926
V\u9812
sI2927
V\u98ed
sI2928
V\u9951
sI2929
V\u4e38
sI2930
V\u4f51
sI2931
V\u5065
sI2932
V\u5077
sI2933
V\u566c
sI2934
V\u572e
sI2935
V\u586b
sI2936
V\u5cb7
sI2937
V\u5ec1
sI2938
V\u611c
sI2939
V\u61f2
sI2940
V\u6280
sI2941
V\u64a5
sI2942
V\u6772
sI2943
V\u6817
sI2944
V\u68d7
sI2945
V\u6c81
sI2946
V\u6cab
sI2947
V\u6deb
sI2948
V\u6e1b
sI2949
V\u6e44
sI2950
V\u6ed3
sI2951
V\u6f31
sI2952
V\u6fc3
sI2953
V\u7210
sI2954
V\u7463
sI2955
V\u752f
sI2956
V\u7682
sI2957
V\u7b0f
sI2958
V\u7d0a
sI2959
V\u7d3c
sI2960
V\u87a2
sI2961
V\u87fe
sI2962
V\u88dd
sI2963
V\u8aa4
sI2964
V\u8cac
sI2965
V\u9052
sI2966
V\u93ac
sI2967
V\u95a9
sI2968
V\u95ca
sI2969
V\u969c
sI2970
V\u96ce
sI2971
V\u9730
sI2972
V\u97ad
sI2973
V\u9910
sI2974
V\u9d60
sI2975
V\u4e99
sI2976
V\u4ea2
sI2977
V\u4ec0
sI2978
V\u50ad
sI2979
V\u50d1
sI2980
V\u52a3
sI2981
V\u52fa
sI2982
V\u54fa
sI2983
V\u5a11
sI2984
V\u5b51
sI2985
V\u5be4
sI2986
V\u5f01
sI2987
V\u5f2d
sI2988
V\u5f77
sI2989
V\u6063
sI2990
V\u60b5
sI2991
V\u6109
sI2992
V\u61a9
sI2993
V\u61cd
sI2994
V\u62d9
sI2995
V\u64f2
sI2996
V\u6518
sI2997
V\u66c7
sI2998
V\u6b46
sI2999
V\u6c93
sI3000
V\u6cf3
sI3001
V\u6d29
sI3002
V\u7009
sI3003
V\u718f
sI3004
V\u7457
sI3005
V\u747e
sI3006
V\u74e6
sI3007
V\u76c6
sI3008
V\u77e7
sI3009
V\u7c40
sI3010
V\u7d13
sI3011
V\u7e46
sI3012
V\u8046
sI3013
V\u8096
sI3014
V\u8343
sI3015
V\u8477
sI3016
V\u8525
sI3017
V\u89bf
sI3018
V\u8a03
sI3019
V\u8a71
sI3020
V\u8b74
sI3021
V\u914b
sI3022
V\u9444
sI3023
V\u96db
sI3024
V\u984d
sI3025
V\u985b
sI3026
V\u9a2d
sI3027
V\u9a37
sI3028
V\u9b74
sI3029
V\u4f01
sI3030
V\u4f88
sI3031
V\u4fae
sI3032
V\u50ee
sI3033
V\u5308
sI3034
V\u55e4
sI3035
V\u5889
sI3036
V\u5a1f
sI3037
V\u5b34
sI3038
V\u5ced
sI3039
V\u5ec8
sI3040
V\u5ee8
sI3041
V\u62ca
sI3042
V\u634c
sI3043
V\u655e
sI3044
V\u659b
sI3045
V\u6636
sI3046
V\u67b3
sI3047
V\u67ec
sI3048
V\u69b7
sI3049
V\u6ce1
sI3050
V\u6eaf
sI3051
V\u71c9
sI3052
V\u7426
sI3053
V\u75fe
sI3054
V\u7729
sI3055
V\u7747
sI3056
V\u7762
sI3057
V\u77db
sI3058
V\u7864
sI3059
V\u786f
sI3060
V\u7a00
sI3061
V\u7b25
sI3062
V\u7b50
sI3063
V\u7c97
sI3064
V\u7cb1
sI3065
V\u8239
sI3066
V\u82a5
sI3067
V\u82ae
sI3068
V\u82b7
sI3069
V\u82db
sI3070
V\u834f
sI3071
V\u8398
sI3072
V\u88fd
sI3073
V\u8a84
sI3074
V\u8b6c
sI3075
V\u8e94
sI3076
V\u90b1
sI3077
V\u96cb
sI3078
V\u98fd
sI3079
V\u9957
sI3080
V\u9d89
sI3081
V\u4f34
sI3082
V\u514c
sI3083
V\u5157
sI3084
V\u53df
sI3085
V\u56d1
sI3086
V\u5b4c
sI3087
V\u5b95
sI3088
V\u5ba5
sI3089
V\u5f6b
sI3090
V\u5f7f
sI3091
V\u60f2
sI3092
V\u617c
sI3093
V\u6221
sI3094
V\u6308
sI3095
V\u6434
sI3096
V\u6504
sI3097
V\u6631
sI3098
V\u6643
sI3099
V\u66fc
sI3100
V\u69ff
sI3101
V\u6ce0
sI3102
V\u6d35
sI3103
V\u6de5
sI3104
V\u6f62
sI3105
V\u6f6e
sI3106
V\u6f6f
sI3107
V\u70ad
sI3108
V\u70af
sI3109
V\u71e7
sI3110
V\u7396
sI3111
V\u7921
sI3112
V\u7950
sI3113
V\u7bb8
sI3114
V\u7d10
sI3115
V\u7db5
sI3116
V\u7e8d
sI3117
V\u8182
sI3118
V\u82fb
sI3119
V\u8702
sI3120
V\u87bd
sI3121
V\u8cb8
sI3122
V\u900b
sI3123
V\u90b3
sI3124
V\u93d1
sI3125
V\u966c
sI3126
V\u9b91
sI3127
V\u9ea5
sI3128
V\u4f0e
sI3129
V\u4fd8
sI3130
V\u532f
sI3131
V\u5384
sI3132
V\u53f1
sI3133
V\u541d
sI3134
V\u555c
sI3135
V\u56b3
sI3136
V\u57a7
sI3137
V\u5806
sI3138
V\u58d3
sI3139
V\u5e63
sI3140
V\u5e97
sI3141
V\u5ee9
sI3142
V\u632b
sI3143
V\u6372
sI3144
V\u63ed
sI3145
V\u6715
sI3146
V\u676a
sI3147
V\u68af
sI3148
V\u696b
sI3149
V\u6cf1
sI3150
V\u6daa
sI3151
V\u6ea5
sI3152
V\u70ab
sI3153
V\u72e9
sI3154
V\u73e9
sI3155
V\u7428
sI3156
V\u74de
sI3157
V\u7621
sI3158
V\u773c
sI3159
V\u777d
sI3160
V\u78ec
sI3161
V\u79be
sI3162
V\u7a70
sI3163
V\u7f86
sI3164
V\u840d
sI3165
V\u847a
sI3166
V\u8a50
sI3167
V\u8af6
sI3168
V\u8c62
sI3169
V\u8c8a
sI3170
V\u8f9c
sI3171
V\u8fa6
sI3172
V\u90dd
sI3173
V\u90fe
sI3174
V\u91aa
sI3175
V\u91d7
sI3176
V\u96d2
sI3177
V\u9d9a
sI3178
V\u9e75
sI3179
V\u9edb
sI3180
V\u4f48
sI3181
V\u5048
sI3182
V\u52d8
sI3183
V\u5366
sI3184
V\u5588
sI3185
V\u573b
sI3186
V\u57d2
sI3187
V\u5ac2
sI3188
V\u5b09
sI3189
V\u5dcb
sI3190
V\u5fd9
sI3191
V\u60cb
sI3192
V\u610d
sI3193
V\u61fe
sI3194
V\u636b
sI3195
V\u6590
sI3196
V\u6591
sI3197
V\u6634
sI3198
V\u6a35
sI3199
V\u6bba
sI3200
V\u6d19
sI3201
V\u6d2e
sI3202
V\u6d3b
sI3203
V\u6fa1
sI3204
V\u7043
sI3205
V\u72e1
sI3206
V\u745b
sI3207
V\u7688
sI3208
V\u77bf
sI3209
V\u79ba
sI3210
V\u7a97
sI3211
V\u7cdf
sI3212
V\u7fd5
sI3213
V\u8017
sI3214
V\u8105
sI3215
V\u8106
sI3216
V\u81c6
sI3217
V\u820c
sI3218
V\u87e0
sI3219
V\u8832
sI3220
V\u88d2
sI3221
V\u88f9
sI3222
V\u8b6f
sI3223
V\u8c7a
sI3224
V\u8d0f
sI3225
V\u8f03
sI3226
V\u9019
sI3227
V\u901e
sI3228
V\u9068
sI3229
V\u90f5
sI3230
V\u9116
sI3231
V\u9291
sI3232
V\u994c
sI3233
V\u99f1
sI3234
V\u9a44
sI3235
V\u9c25
sI3236
V\u9dfa
sI3237
V\u9f3b
sI3238
V\u50ed
sI3239
V\u5420
sI3240
V\u54fd
sI3241
V\u5589
sI3242
V\u57a2
sI3243
V\u57e0
sI3244
V\u5acc
sI3245
V\u5ae0
sI3246
V\u5c79
sI3247
V\u5cf6
sI3248
V\u5d1b
sI3249
V\u5ec4
sI3250
V\u5f1b
sI3251
V\u602a
sI3252
V\u61ac
sI3253
V\u6241
sI3254
V\u646d
sI3255
V\u655d
sI3256
V\u6674
sI3257
V\u6696
sI3258
V\u669d
sI3259
V\u66b9
sI3260
V\u6874
sI3261
V\u690e
sI3262
V\u69ad
sI3263
V\u69e7
sI3264
V\u6b04
sI3265
V\u6bae
sI3266
V\u6d0c
sI3267
V\u6f78
sI3268
V\u6fec
sI3269
V\u7076
sI3270
V\u7085
sI3271
V\u70ac
sI3272
V\u71d2
sI3273
V\u72a7
sI3274
V\u73c8
sI3275
V\u74a8
sI3276
V\u7a20
sI3277
V\u7ce0
sI3278
V\u7e6a
sI3279
V\u8160
sI3280
V\u8392
sI3281
V\u8446
sI3282
V\u846d
sI3283
V\u8548
sI3284
V\u8556
sI3285
V\u86fb
sI3286
V\u86fe
sI3287
V\u8836
sI3288
V\u89ac
sI3289
V\u8a6d
sI3290
V\u8b17
sI3291
V\u8c94
sI3292
V\u8efb
sI3293
V\u912f
sI3294
V\u9146
sI3295
V\u9375
sI3296
V\u93a3
sI3297
V\u95bc
sI3298
V\u95d0
sI3299
V\u973d
sI3300
V\u97ab
sI3301
V\u9a2e
sI3302
V\u9a4a
sI3303
V\u9eb4
sI3304
V\u9ecd
sI3305
V\u9ee0
sI3306
V\u4ef5
sI3307
V\u4f54
sI3308
V\u4f75
sI3309
V\u50fb
sI3310
V\u5147
sI3311
V\u5191
sI3312
V\u51bd
sI3313
V\u5208
sI3314
V\u5237
sI3315
V\u524e
sI3316
V\u53e8
sI3317
V\u559f
sI3318
V\u560f
sI3319
V\u56da
sI3320
V\u5835
sI3321
V\u59ae
sI3322
V\u5b0c
sI3323
V\u5d6b
sI3324
V\u5e43
sI3325
V\u5edb
sI3326
V\u5f56
sI3327
V\u634d
sI3328
V\u6387
sI3329
V\u64b2
sI3330
V\u66b1
sI3331
V\u674f
sI3332
V\u67d8
sI3333
V\u681d
sI3334
V\u68a2
sI3335
V\u6905
sI3336
V\u69cd
sI3337
V\u6b50
sI3338
V\u6d93
sI3339
V\u6dfb
sI3340
V\u6e34
sI3341
V\u6f7a
sI3342
V\u7130
sI3343
V\u7152
sI3344
V\u71fc
sI3345
V\u720d
sI3346
V\u72f9
sI3347
V\u741a
sI3348
V\u755c
sI3349
V\u766d
sI3350
V\u77ac
sI3351
V\u77bc
sI3352
V\u78ad
sI3353
V\u7a39
sI3354
V\u7aaa
sI3355
V\u7b4c
sI3356
V\u7c23
sI3357
V\u7cdc
sI3358
V\u7d07
sI3359
V\u7d09
sI3360
V\u7d61
sI3361
V\u7e1d
sI3362
V\u7e62
sI3363
V\u7e79
sI3364
V\u8018
sI3365
V\u8026
sI3366
V\u8028
sI3367
V\u8108
sI3368
V\u83c1
sI3369
V\u84c1
sI3370
V\u84c9
sI3371
V\u859c
sI3372
V\u888d
sI3373
V\u88ca
sI3374
V\u89af
sI3375
V\u8a0a
sI3376
V\u8b14
sI3377
V\u8b4f
sI3378
V\u8d04
sI3379
V\u8dcb
sI3380
V\u8ddd
sI3381
V\u8e1e
sI3382
V\u8e81
sI3383
V\u90af
sI3384
V\u90eb
sI3385
V\u90ef
sI3386
V\u9131
sI3387
V\u947d
sI3388
V\u978d
sI3389
V\u98ef
sI3390
V\u9c32
sI3391
V\u9ef7
sI3392
V\u502a
sI3393
V\u5197
sI3394
V\u522a
sI3395
V\u5438
sI3396
V\u5480
sI3397
V\u557b
sI3398
V\u563f
sI3399
V\u581e
sI3400
V\u5858
sI3401
V\u5969
sI3402
V\u59be
sI3403
V\u5b0b
sI3404
V\u5c68
sI3405
V\u5e19
sI3406
V\u5fff
sI3407
V\u600f
sI3408
V\u608d
sI3409
V\u6092
sI3410
V\u6349
sI3411
V\u64d4
sI3412
V\u64ef
sI3413
V\u6583
sI3414
V\u65a4
sI3415
V\u6628
sI3416
V\u6676
sI3417
V\u6840
sI3418
V\u68a8
sI3419
V\u68cb
sI3420
V\u68fc
sI3421
V\u6adf
sI3422
V\u6b67
sI3423
V\u6b9b
sI3424
V\u6c61
sI3425
V\u6dec
sI3426
V\u6f15
sI3427
V\u6f3e
sI3428
V\u6fb3
sI3429
V\u6fe0
sI3430
V\u7018
sI3431
V\u714e
sI3432
V\u716c
sI3433
V\u725d
sI3434
V\u73a2
sI3435
V\u74a9
sI3436
V\u7634
sI3437
V\u7720
sI3438
V\u7768
sI3439
V\u79df
sI3440
V\u7a3c
sI3441
V\u7ab6
sI3442
V\u7afa
sI3443
V\u7b1b
sI3444
V\u7b4d
sI3445
V\u7c37
sI3446
V\u7c69
sI3447
V\u7d46
sI3448
V\u7e1b
sI3449
V\u7e39
sI3450
V\u7f36
sI3451
V\u7f69
sI3452
V\u8299
sI3453
V\u82b8
sI3454
V\u83c0
sI3455
V\u83f1
sI3456
V\u83fd
sI3457
V\u8475
sI3458
V\u87bb
sI3459
V\u891a
sI3460
V\u8a1d
sI3461
V\u8ce3
sI3462
V\u8dea
sI3463
V\u9090
sI3464
V\u9132
sI3465
V\u9179
sI3466
V\u9189
sI3467
V\u91ae
sI3468
V\u95b6
sI3469
V\u9698
sI3470
V\u9708
sI3471
V\u9713
sI3472
V\u9801
sI3473
V\u991a
sI3474
V\u9b3b
sI3475
V\u9d1f
sI3476
V\u9efd
sI3477
V\u4f3a
sI3478
V\u4f5e
sI3479
V\u5028
sI3480
V\u527d
sI3481
V\u5349
sI3482
V\u5398
sI3483
V\u543b
sI3484
V\u564e
sI3485
V\u577c
sI3486
V\u57f9
sI3487
V\u5824
sI3488
V\u5950
sI3489
V\u59a8
sI3490
V\u5ac9
sI3491
V\u5afb
sI3492
V\u5b21
sI3493
V\u5b8c
sI3494
V\u5cd2
sI3495
V\u5e4c
sI3496
V\u5e62
sI3497
V\u604d
sI3498
V\u6147
sI3499
V\u618e
sI3500
V\u627c
sI3501
V\u6292
sI3502
V\u634e
sI3503
V\u63a0
sI3504
V\u63c4
sI3505
V\u652c
sI3506
V\u6641
sI3507
V\u668c
sI3508
V\u682a
sI3509
V\u683d
sI3510
V\u6fd5
sI3511
V\u72d7
sI3512
V\u73ee
sI3513
V\u744b
sI3514
V\u74cc
sI3515
V\u7511
sI3516
V\u75b5
sI3517
V\u7625
sI3518
V\u792b
sI3519
V\u7a3f
sI3520
V\u7afd
sI3521
V\u7c27
sI3522
V\u7c95
sI3523
V\u7ca2
sI3524
V\u7d17
sI3525
V\u7e36
sI3526
V\u7e7d
sI3527
V\u800b
sI3528
V\u8043
sI3529
V\u808c
sI3530
V\u826e
sI3531
V\u82d4
sI3532
V\u84d0
sI3533
V\u85dc
sI3534
V\u86a9
sI3535
V\u8822
sI3536
V\u89da
sI3537
V\u8a36
sI3538
V\u8a61
sI3539
V\u8a70
sI3540
V\u8ac2
sI3541
V\u8b92
sI3542
V\u8c78
sI3543
V\u8caf
sI3544
V\u8cd1
sI3545
V\u8dd7
sI3546
V\u8de3
sI3547
V\u8e44
sI3548
V\u8e49
sI3549
V\u8ff8
sI3550
V\u9011
sI3551
V\u90be
sI3552
V\u90d7
sI3553
V\u9234
sI3554
V\u9414
sI3555
V\u95bd
sI3556
V\u9837
sI3557
V\u9998
sI3558
V\u99db
sI3559
V\u9da9
sI3560
V\u4e10
sI3561
V\u525d
sI3562
V\u5261
sI3563
V\u5484
sI3564
V\u56bc
sI3565
V\u577b
sI3566
V\u578c
sI3567
V\u5807
sI3568
V\u5993
sI3569
V\u5a62
sI3570
V\u5b65
sI3571
V\u5b84
sI3572
V\u5d06
sI3573
V\u5da7
sI3574
V\u5e16
sI3575
V\u5e58
sI3576
V\u5f29
sI3577
V\u62c6
sI3578
V\u62ed
sI3579
V\u6426
sI3580
V\u6458
sI3581
V\u65f1
sI3582
V\u6603
sI3583
V\u6615
sI3584
V\u67dd
sI3585
V\u68f9
sI3586
V\u693d
sI3587
V\u6a23
sI3588
V\u6bd6
sI3589
V\u6ef4
sI3590
V\u6f2c
sI3591
V\u6f7c
sI3592
V\u6f8d
sI3593
V\u6ffa
sI3594
V\u7058
sI3595
V\u71e0
sI3596
V\u7272
sI3597
V\u73c2
sI3598
V\u73d9
sI3599
V\u742a
sI3600
V\u74bf
sI3601
V\u74cf
sI3602
V\u750c
sI3603
V\u75ab
sI3604
V\u76a4
sI3605
V\u76f2
sI3606
V\u7725
sI3607
V\u7a62
sI3608
V\u7aff
sI3609
V\u7c5f
sI3610
V\u7e5a
sI3611
V\u7f3d
sI3612
V\u7fc5
sI3613
V\u81bb
sI3614
V\u828a
sI3615
V\u8335
sI3616
V\u8466
sI3617
V\u85ff
sI3618
V\u8605
sI3619
V\u867a
sI3620
V\u8703
sI3621
V\u879f
sI3622
V\u8805
sI3623
V\u8816
sI3624
V\u8a87
sI3625
V\u8b8e
sI3626
V\u8b96
sI3627
V\u8cd2
sI3628
V\u8cda
sI3629
V\u8d66
sI3630
V\u8dce
sI3631
V\u8ecb
sI3632
V\u8f54
sI3633
V\u8fc2
sI3634
V\u8fe6
sI3635
V\u90db
sI3636
V\u9122
sI3637
V\u914f
sI3638
V\u91f5
sI3639
V\u9296
sI3640
V\u92ea
sI3641
V\u9319
sI3642
V\u95cc
sI3643
V\u968d
sI3644
V\u9706
sI3645
V\u9773
sI3646
V\u9821
sI3647
V\u9838
sI3648
V\u98e7
sI3649
V\u4f36
sI3650
V\u4f5a
sI3651
V\u4f6f
sI3652
V\u4f76
sI3653
V\u50d6
sI3654
V\u5140
sI3655
V\u51cd
sI3656
V\u527f
sI3657
V\u52be
sI3658
V\u53e1
sI3659
V\u53f5
sI3660
V\u542e
sI3661
V\u5533
sI3662
V\u5598
sI3663
V\u559d
sI3664
V\u55f7
sI3665
V\u564d
sI3666
V\u56c0
sI3667
V\u5740
sI3668
V\u5761
sI3669
V\u5958
sI3670
V\u5a55
sI3671
V\u5db8
sI3672
V\u5dd4
sI3673
V\u5e54
sI3674
V\u5e80
sI3675
V\u5eda
sI3676
V\u600d
sI3677
V\u609b
sI3678
V\u60da
sI3679
V\u60f4
sI3680
V\u618a
sI3681
V\u61be
sI3682
V\u61cc
sI3683
V\u6229
sI3684
V\u6284
sI3685
V\u6384
sI3686
V\u6478
sI3687
V\u65a1
sI3688
V\u684e
sI3689
V\u688f
sI3690
V\u68e7
sI3691
V\u6a17
sI3692
V\u6a50
sI3693
V\u6ad3
sI3694
V\u6baa
sI3695
V\u6c10
sI3696
V\u6c69
sI3697
V\u6d97
sI3698
V\u6ebd
sI3699
V\u6f35
sI3700
V\u6f80
sI3701
V\u6fb6
sI3702
V\u712f
sI3703
V\u71c1
sI3704
V\u7228
sI3705
V\u7281
sI3706
V\u7377
sI3707
V\u7480
sI3708
V\u74b5
sI3709
V\u74da
sI3710
V\u74f4
sI3711
V\u769a
sI3712
V\u77d7
sI3713
V\u7802
sI3714
V\u782d
sI3715
V\u784c
sI3716
V\u78e7
sI3717
V\u7919
sI3718
V\u7947
sI3719
V\u795b
sI3720
V\u7968
sI3721
V\u7b08
sI3722
V\u7c3e
sI3723
V\u7c92
sI3724
V\u7d02
sI3725
V\u7d21
sI3726
V\u7d3a
sI3727
V\u7d3f
sI3728
V\u7dc4
sI3729
V\u7e2b
sI3730
V\u7e2e
sI3731
V\u7e52
sI3732
V\u7fb9
sI3733
V\u8084
sI3734
V\u808b
sI3735
V\u80af
sI3736
V\u8150
sI3737
V\u830c
sI3738
V\u8336
sI3739
V\u83cc
sI3740
V\u8482
sI3741
V\u868c
sI3742
V\u8966
sI3743
V\u8993
sI3744
V\u8a52
sI3745
V\u8af3
sI3746
V\u8b56
sI3747
V\u8cc4
sI3748
V\u8dba
sI3749
V\u8dcc
sI3750
V\u8dd6
sI3751
V\u8fd3
sI3752
V\u9021
sI3753
V\u906e
sI3754
V\u9187
sI3755
V\u9191
sI3756
V\u9396
sI3757
V\u93a7
sI3758
V\u93b0
sI3759
V\u95bf
sI3760
V\u9658
sI3761
V\u9697
sI3762
V\u9768
sI3763
V\u97d9
sI3764
V\u9859
sI3765
V\u9b1a
sI3766
V\u9cf6
sI3767
V\u9d5d
sI3768
V\u9ecc
sI3769
V\u9f95
sI3770
V\u4ec4
sI3771
V\u4f70
sI3772
V\u4f96
sI3773
V\u4fdc
sI3774
V\u5106
sI3775
V\u51aa
sI3776
V\u5238
sI3777
V\u5243
sI3778
V\u5283
sI3779
V\u531d
sI3780
V\u5507
sI3781
V\u5599
sI3782
V\u5653
sI3783
V\u5674
sI3784
V\u5709
sI3785
V\u5821
sI3786
V\u584f
sI3787
V\u5879
sI3788
V\u587e
sI3789
V\u588a
sI3790
V\u5992
sI3791
V\u59a4
sI3792
V\u5b71
sI3793
V\u5d22
sI3794
V\u5d82
sI3795
V\u5dbc
sI3796
V\u5df9
sI3797
V\u6016
sI3798
V\u6035
sI3799
V\u609a
sI3800
V\u60f6
sI3801
V\u6115
sI3802
V\u61fa
sI3803
V\u6289
sI3804
V\u6389
sI3805
V\u638e
sI3806
V\u63d2
sI3807
V\u6487
sI3808
V\u64bf
sI3809
V\u659f
sI3810
V\u65ab
sI3811
V\u6688
sI3812
V\u6727
sI3813
V\u68ad
sI3814
V\u6add
sI3815
V\u6bf3
sI3816
V\u6cee
sI3817
V\u6db8
sI3818
V\u6e5c
sI3819
V\u6e5f
sI3820
V\u6ea7
sI3821
V\u6f86
sI3822
V\u7028
sI3823
V\u7192
sI3824
V\u71b1
sI3825
V\u71c3
sI3826
V\u71ce
sI3827
V\u72f8
sI3828
V\u731c
sI3829
V\u7360
sI3830
V\u736b
sI3831
V\u73bb
sI3832
V\u73e3
sI3833
V\u73fd
sI3834
V\u74a0
sI3835
V\u74f6
sI3836
V\u7526
sI3837
V\u754e
sI3838
V\u7566
sI3839
V\u780c
sI3840
V\u7931
sI3841
V\u7995
sI3842
V\u79d5
sI3843
V\u7a61
sI3844
V\u7b4b
sI3845
V\u7b4f
sI3846
V\u7b8f
sI3847
V\u7c6c
sI3848
V\u7ca5
sI3849
V\u7d32
sI3850
V\u7e7e
sI3851
V\u8098
sI3852
V\u80ba
sI3853
V\u81ed
sI3854
V\u81fc
sI3855
V\u81fe
sI3856
V\u82e1
sI3857
V\u8347
sI3858
V\u8354
sI3859
V\u839e
sI3860
V\u8431
sI3861
V\u86a4
sI3862
V\u8907
sI3863
V\u8a58
sI3864
V\u8a8d
sI3865
V\u8adb
sI3866
V\u8b4e
sI3867
V\u8b9e
sI3868
V\u8cb2
sI3869
V\u8e59
sI3870
V\u8f1c
sI3871
V\u8f3b
sI3872
V\u900f
sI3873
V\u908f
sI3874
V\u9097
sI3875
V\u90c7
sI3876
V\u915e
sI3877
V\u9163
sI3878
V\u916a
sI3879
V\u923f
sI3880
V\u9470
sI3881
V\u958e
sI3882
V\u9716
sI3883
V\u9811
sI3884
V\u9912
sI3885
V\u9b06
sI3886
V\u9b90
sI3887
V\u9d26
sI3888
V\u9e92
sI3889
V\u9ebc
sI3890
V\u4e69
sI3891
V\u4edf
sI3892
V\u4ef6
sI3893
V\u4efd
sI3894
V\u4eff
sI3895
V\u4f7e
sI3896
V\u4f97
sI3897
V\u50e6
sI3898
V\u50f5
sI3899
V\u511f
sI3900
V\u515c
sI3901
V\u5201
sI3902
V\u5254
sI3903
V\u52d7
sI3904
V\u5412
sI3905
V\u5492
sI3906
V\u5538
sI3907
V\u572f
sI3908
V\u5793
sI3909
V\u57a0
sI3910
V\u57f4
sI3911
V\u5925
sI3912
V\u5a6d
sI3913
V\u5d0e
sI3914
V\u5d24
sI3915
V\u5d6c
sI3916
V\u5d87
sI3917
V\u5e96
sI3918
V\u5ea5
sI3919
V\u5ed6
sI3920
V\u5edd
sI3921
V\u5fee
sI3922
V\u600a
sI3923
V\u602f
sI3924
V\u6067
sI3925
V\u6096
sI3926
V\u60f1
sI3927
V\u614c
sI3928
V\u6192
sI3929
V\u619d
sI3930
V\u61a7
sI3931
V\u625b
sI3932
V\u6279
sI3933
V\u62f3
sI3934
V\u6355
sI3935
V\u63ac
sI3936
V\u63e9
sI3937
V\u646f
sI3938
V\u6473
sI3939
V\u64d0
sI3940
V\u65f0
sI3941
V\u66d6
sI3942
V\u66db
sI3943
V\u68d2
sI3944
V\u69b1
sI3945
V\u6af3
sI3946
V\u6afb
sI3947
V\u6b49
sI3948
V\u6bcb
sI3949
V\u6c3e
sI3950
V\u6c40
sI3951
V\u6c86
sI3952
V\u6d27
sI3953
V\u6d94
sI3954
V\u6e26
sI3955
V\u6eb1
sI3956
V\u6f2d
sI3957
V\u6f32
sI3958
V\u7023
sI3959
V\u7131
sI3960
V\u715c
sI3961
V\u717d
sI3962
V\u7261
sI3963
V\u728d
sI3964
V\u72c1
sI3965
V\u72d9
sI3966
V\u736f
sI3967
V\u73ca
sI3968
V\u7486
sI3969
V\u7583
sI3970
V\u7626
sI3971
V\u76c2
sI3972
V\u76ce
sI3973
V\u76f1
sI3974
V\u76fc
sI3975
V\u7708
sI3976
V\u7719
sI3977
V\u771a
sI3978
V\u7738
sI3979
V\u7897
sI3980
V\u797a
sI3981
V\u79e3
sI3982
V\u79e4
sI3983
V\u7a92
sI3984
V\u7a98
sI3985
V\u7b71
sI3986
V\u7b72
sI3987
V\u7b8b
sI3988
V\u7be1
sI3989
V\u7c5c
sI3990
V\u7cc5
sI3991
V\u7d83
sI3992
V\u7da3
sI3993
V\u7dca
sI3994
V\u7dfb
sI3995
V\u7e2d
sI3996
V\u7e73
sI3997
V\u7e9b
sI3998
V\u7fbf
sI3999
V\u80c3
sI4000
V\u8129
sI4001
V\u813e
sI4002
V\u814e
sI4003
V\u8151
sI4004
V\u8200
sI4005
V\u82fe
sI4006
V\u8304
sI4007
V\u8350
sI4008
V\u83a9
sI4009
V\u8401
sI4010
V\u8546
sI4011
V\u8558
sI4012
V\u8627
sI4013
V\u86e4
sI4014
V\u8776
sI4015
V\u8892
sI4016
V\u88a4
sI4017
V\u88d9
sI4018
V\u8925
sI4019
V\u896a
sI4020
V\u89a6
sI4021
V\u8a10
sI4022
V\u8a3e
sI4023
V\u8afa
sI4024
V\u8ca9
sI4025
V\u8d84
sI4026
V\u8dec
sI4027
V\u8e0f
sI4028
V\u8e4c
sI4029
V\u9017
sI4030
V\u902f
sI4031
V\u90dc
sI4032
V\u9123
sI4033
V\u9136
sI4034
V\u9266
sI4035
V\u92e4
sI4036
V\u93df
sI4037
V\u9583
sI4038
V\u95de
sI4039
V\u9641
sI4040
V\u980f
sI4041
V\u98f4
sI4042
V\u991e
sI4043
V\u993c
sI4044
V\u9949
sI4045
V\u99d1
sI4046
V\u9afb
sI4047
V\u9b0d
sI4048
V\u9d09
sI4049
V\u9dbb
sI4050
V\u9df2
sI4051
V\u9e9d
sI4052
V\u4f91
sI4053
V\u5011
sI4054
V\u50b5
sI4055
V\u5107
sI4056
V\u524b
sI4057
V\u5291
sI4058
V\u52f0
sI4059
V\u52fb
sI4060
V\u54b3
sI4061
V\u54bc
sI4062
V\u55c7
sI4063
V\u55d1
sI4064
V\u5629
sI4065
V\u5704
sI4066
V\u571c
sI4067
V\u5773
sI4068
V\u5862
sI4069
V\u58a9
sI4070
V\u58be
sI4071
V\u59af
sI4072
V\u5a20
sI4073
V\u5abc
sI4074
V\u5ae3
sI4075
V\u5b83
sI4076
V\u5b93
sI4077
V\u5c38
sI4078
V\u5ca9
sI4079
V\u5d27
sI4080
V\u5e11
sI4081
V\u5e45
sI4082
V\u5e5f
sI4083
V\u5e6c
sI4084
V\u5ef3
sI4085
V\u5f57
sI4086
V\u5fa8
sI4087
V\u5feb
sI4088
V\u605a
sI4089
V\u60b1
sI4090
V\u60d8
sI4091
V\u6114
sI4092
V\u6162
sI4093
V\u61e3
sI4094
V\u61f5
sI4095
V\u6266
sI4096
V\u628a
sI4097
V\u62c9
sI4098
V\u62fd
sI4099
V\u63c0
sI4100
V\u63e3
sI4101
V\u63ea
sI4102
V\u64bb
sI4103
V\u64be
sI4104
V\u6549
sI4105
V\u65fb
sI4106
V\u6609
sI4107
V\u6661
sI4108
V\u66a0
sI4109
V\u66ec
sI4110
V\u6735
sI4111
V\u67f0
sI4112
V\u6816
sI4113
V\u6877
sI4114
V\u6883
sI4115
V\u68b0
sI4116
V\u695e
sI4117
V\u6aaf
sI4118
V\u6af1
sI4119
V\u6b20
sI4120
V\u6bbc
sI4121
V\u6c70
sI4122
V\u6c85
sI4123
V\u6cb1
sI4124
V\u6cda
sI4125
V\u6d04
sI4126
V\u6d33
sI4127
V\u6d7c
sI4128
V\u6dd9
sI4129
V\u6ec2
sI4130
V\u6eec
sI4131
V\u6ef8
sI4132
V\u6ef9
sI4133
V\u6f66
sI4134
V\u6f8c
sI4135
V\u6fdb
sI4136
V\u7015
sI4137
V\u7032
sI4138
V\u7078
sI4139
V\u7099
sI4140
V\u71b9
sI4141
V\u71fe
sI4142
V\u7206
sI4143
V\u7325
sI4144
V\u73a8
sI4145
V\u73ab
sI4146
V\u73b2
sI4147
V\u7425
sI4148
V\u7481
sI4149
V\u7498
sI4150
V\u74a1
sI4151
V\u74e0
sI4152
V\u74e2
sI4153
V\u755a
sI4154
V\u75bd
sI4155
V\u75d5
sI4156
V\u75ff
sI4157
V\u77b5
sI4158
V\u78c5
sI4159
V\u7a57
sI4160
V\u7aaf
sI4161
V\u7bda
sI4162
V\u7c00
sI4163
V\u7cf2
sI4164
V\u7d1c
sI4165
V\u7d86
sI4166
V\u7d88
sI4167
V\u7da6
sI4168
V\u7e32
sI4169
V\u7e35
sI4170
V\u7fc3
sI4171
V\u8004
sI4172
V\u80d0
sI4173
V\u810a
sI4174
V\u812f
sI4175
V\u8146
sI4176
V\u814b
sI4177
V\u8166
sI4178
V\u8173
sI4179
V\u8201
sI4180
V\u8264
sI4181
V\u826b
sI4182
V\u829f
sI4183
V\u8317
sI4184
V\u8328
sI4185
V\u8338
sI4186
V\u8396
sI4187
V\u8407
sI4188
V\u84ca
sI4189
V\u84fd
sI4190
V\u8587
sI4191
V\u85ce
sI4192
V\u871c
sI4193
V\u8755
sI4194
V\u8765
sI4195
V\u87ad
sI4196
V\u87ea
sI4197
V\u8821
sI4198
V\u8888
sI4199
V\u88b7
sI4200
V\u88df
sI4201
V\u890a
sI4202
V\u8956
sI4203
V\u8998
sI4204
V\u8a3a
sI4205
V\u8a41
sI4206
V\u8acd
sI4207
V\u8c85
sI4208
V\u8cc2
sI4209
V\u8cc3
sI4210
V\u8d07
sI4211
V\u8d6d
sI4212
V\u8d91
sI4213
V\u8dcf
sI4214
V\u8e40
sI4215
V\u8e42
sI4216
V\u8e72
sI4217
V\u8e76
sI4218
V\u8e8a
sI4219
V\u8e91
sI4220
V\u8efa
sI4221
V\u8f62
sI4222
V\u90a1
sI4223
V\u90b0
sI4224
V\u9192
sI4225
V\u919e
sI4226
V\u91e7
sI4227
V\u9215
sI4228
V\u927a
sI4229
V\u92c8
sI4230
V\u932e
sI4231
V\u9347
sI4232
V\u93de
sI4233
V\u95a4
sI4234
V\u95b9
sI4235
V\u9640
sI4236
V\u96bb
sI4237
V\u96e9
sI4238
V\u96f9
sI4239
V\u973e
sI4240
V\u9785
sI4241
V\u9830
sI4242
V\u98ea
sI4243
V\u98eb
sI4244
V\u9954
sI4245
V\u9a36
sI4246
V\u9a62
sI4247
V\u9adf
sI4248
V\u9ae1
sI4249
V\u9aed
sI4250
V\u9aef
sI4251
V\u9b54
sI4252
V\u9b92
sI4253
V\u9be2
sI4254
V\u9be4
sI4255
V\u9c49
sI4256
V\u9d28
sI4257
V\u9dc2
sI4258
V\u9dd9
sI4259
V\u9def
sI4260
V\u9e88
sI4261
V\u9e8b
sI4262
V\u9f37
sI4263
V\u4e47
sI4264
V\u4ec6
sI4265
V\u4f30
sI4266
V\u4f43
sI4267
V\u4fb9
sI4268
V\u4fcc
sI4269
V\u4fdb
sI4270
V\u5016
sI4271
V\u5021
sI4272
V\u5023
sI4273
V\u5030
sI4274
V\u5075
sI4275
V\u50b4
sI4276
V\u50e8
sI4277
V\u510b
sI4278
V\u5216
sI4279
V\u522e
sI4280
V\u5233
sI4281
V\u524c
sI4282
V\u525c
sI4283
V\u5269
sI4284
V\u52e3
sI4285
V\u532d
sI4286
V\u536e
sI4287
V\u5378
sI4288
V\u53ed
sI4289
V\u542d
sI4290
V\u543c
sI4291
V\u547b
sI4292
V\u54ab
sI4293
V\u54ac
sI4294
V\u54c2
sI4295
V\u54ee
sI4296
V\u550f
sI4297
V\u552a
sI4298
V\u552e
sI4299
V\u5544
sI4300
V\u55e5
sI4301
V\u55fd
sI4302
V\u5669
sI4303
V\u5672
sI4304
V\u5687
sI4305
V\u56ae
sI4306
V\u56b6
sI4307
V\u56f9
sI4308
V\u574c
sI4309
V\u5751
sI4310
V\u576b
sI4311
V\u57d4
sI4312
V\u5800
sI4313
V\u580b
sI4314
V\u5830
sI4315
V\u586c
sI4316
V\u5910
sI4317
V\u59a5
sI4318
V\u59d0
sI4319
V\u59f9
sI4320
V\u5a0c
sI4321
V\u5a1c
sI4322
V\u5a6a
sI4323
V\u5aa7
sI4324
V\u5ad7
sI4325
V\u5ae6
sI4326
V\u5b19
sI4327
V\u5cea
sI4328
V\u5d6f
sI4329
V\u5d99
sI4330
V\u5e06
sI4331
V\u5e14
sI4332
V\u5e5b
sI4333
V\u5ed1
sI4334
V\u5ed9
sI4335
V\u5f40
sI4336
V\u5f67
sI4337
V\u5fad
sI4338
V\u5fe1
sI4339
V\u6015
sI4340
V\u606b
sI4341
V\u6083
sI4342
V\u608a
sI4343
V\u60b8
sI4344
V\u60f0
sI4345
V\u6100
sI4346
V\u610e
sI4347
V\u6199
sI4348
V\u61df
sI4349
V\u61e6
sI4350
V\u6215
sI4351
V\u6254
sI4352
V\u62c4
sI4353
V\u6311
sI4354
V\u6398
sI4355
V\u641e
sI4356
V\u6479
sI4357
V\u6499
sI4358
V\u649d
sI4359
V\u64ce
sI4360
V\u64e0
sI4361
V\u6509
sI4362
V\u652a
sI4363
V\u6572
sI4364
V\u65d6
sI4365
V\u65fa
sI4366
V\u6623
sI4367
V\u6657
sI4368
V\u6695
sI4369
V\u66d2
sI4370
V\u6710
sI4371
V\u67d9
sI4372
V\u67de
sI4373
V\u67e2
sI4374
V\u67e5
sI4375
V\u67f5
sI4376
V\u6838
sI4377
V\u6854
sI4378
V\u687f
sI4379
V\u696e
sI4380
V\u69ce
sI4381
V\u69ed
sI4382
V\u6a05
sI4383
V\u6a1f
sI4384
V\u6b39
sI4385
V\u6b43
sI4386
V\u6b8d
sI4387
V\u6bad
sI4388
V\u6bb3
sI4389
V\u6bc6
sI4390
V\u6c08
sI4391
V\u6c8c
sI4392
V\u6cb2
sI4393
V\u6cbd
sI4394
V\u6d2b
sI4395
V\u6dc5
sI4396
V\u6dd8
sI4397
V\u6de4
sI4398
V\u6de6
sI4399
V\u6e2b
sI4400
V\u6e54
sI4401
V\u6e89
sI4402
V\u6eb5
sI4403
V\u6eb6
sI4404
V\u6ec7
sI4405
V\u6fae
sI4406
V\u6fc6
sI4407
V\u700f
sI4408
V\u701f
sI4409
V\u70b7
sI4410
V\u7168
sI4411
V\u716e
sI4412
V\u71a0
sI4413
V\u72f4
sI4414
V\u731d
sI4415
V\u73ad
sI4416
V\u73cf
sI4417
V\u7468
sI4418
V\u74b2
sI4419
V\u74ba
sI4420
V\u74d8
sI4421
V\u750d
sI4422
V\u7515
sI4423
V\u7540
sI4424
V\u755b
sI4425
V\u75ac
sI4426
V\u75c7
sI4427
V\u75cd
sI4428
V\u75e2
sI4429
V\u7610
sI4430
V\u7649
sI4431
V\u7656
sI4432
V\u7661
sI4433
V\u7662
sI4434
V\u7670
sI4435
V\u7718
sI4436
V\u776b
sI4437
V\u77aa
sI4438
V\u77bd
sI4439
V\u788c
sI4440
V\u78c1
sI4441
V\u78f4
sI4442
V\u7953
sI4443
V\u79b3
sI4444
V\u79bf
sI4445
V\u7a17
sI4446
V\u7a3b
sI4447
V\u7a84
sI4448
V\u7aa0
sI4449
V\u7aac
sI4450
V\u7b52
sI4451
V\u7b65
sI4452
V\u7c0b
sI4453
V\u7c72
sI4454
V\u7cca
sI4455
V\u7cde
sI4456
V\u7cf4
sI4457
V\u7cf8
sI4458
V\u7d0b
sI4459
V\u7d9d
sI4460
V\u7de1
sI4461
V\u7de6
sI4462
V\u7df7
sI4463
V\u7e6d
sI4464
V\u7e81
sI4465
V\u7f9d
sI4466
V\u7fe1
sI4467
V\u8010
sI4468
V\u8012
sI4469
V\u8052
sI4470
V\u80dd
sI4471
V\u80de
sI4472
V\u80e8
sI4473
V\u8155
sI4474
V\u8188
sI4475
V\u81c9
sI4476
V\u81ca
sI4477
V\u81fa
sI4478
V\u8210
sI4479
V\u8221
sI4480
V\u8233
sI4481
V\u828d
sI4482
V\u82b0
sI4483
V\u8351
sI4484
V\u838e
sI4485
V\u83a2
sI4486
V\u8411
sI4487
V\u84af
sI4488
V\u8562
sI4489
V\u8588
sI4490
V\u8591
sI4491
V\u85d5
sI4492
V\u863a
sI4493
V\u8729
sI4494
V\u875f
sI4495
V\u8763
sI4496
V\u87ca
sI4497
V\u87e3
sI4498
V\u87f9
sI4499
V\u8806
sI4500
V\u8844
sI4501
V\u8943
sI4502
V\u896f
sI4503
V\u89a1
sI4504
V\u89d4
sI4505
V\u89d6
sI4506
V\u8a22
sI4507
V\u8a3b
sI4508
V\u8a3c
sI4509
V\u8a9a
sI4510
V\u8ab6
sI4511
V\u8acf
sI4512
V\u8ad7
sI4513
V\u8ae0
sI4514
V\u8ae1
sI4515
V\u8afc
sI4516
V\u8b04
sI4517
V\u8b54
sI4518
V\u8c93
sI4519
V\u8cfc
sI4520
V\u8ddb
sI4521
V\u8df3
sI4522
V\u8e1d
sI4523
V\u8e23
sI4524
V\u8e7a
sI4525
V\u8e87
sI4526
V\u8e93
sI4527
V\u8e95
sI4528
V\u8eaa
sI4529
V\u8edf
sI4530
V\u8f33
sI4531
V\u8f5f
sI4532
V\u8fb6
sI4533
V\u8fd5
sI4534
V\u902d
sI4535
V\u9104
sI4536
V\u9118
sI4537
V\u911e
sI4538
V\u9148
sI4539
V\u914e
sI4540
V\u9162
sI4541
V\u919c
sI4542
V\u91d0
sI4543
V\u920d
sI4544
V\u9237
sI4545
V\u9257
sI4546
V\u92b2
sI4547
V\u9310
sI4548
V\u9318
sI4549
V\u934a
sI4550
V\u9370
sI4551
V\u93a9
sI4552
V\u93c8
sI4553
V\u93cc
sI4554
V\u93f9
sI4555
V\u9403
sI4556
V\u958c
sI4557
V\u963d
sI4558
V\u975a
sI4559
V\u9776
sI4560
V\u9832
sI4561
V\u9852
sI4562
V\u9857
sI4563
V\u9865
sI4564
V\u9997
sI4565
V\u99d8
sI4566
V\u9a3e
sI4567
V\u9abc
sI4568
V\u9ad2
sI4569
V\u9bab
sI4570
V\u9d42
sI4571
V\u9d70
sI4572
V\u9de6
sI4573
V\u9e1a
sI4574
V\u9e1b
sI4575
V\u9e7a
sI4576
V\u9ecf
sI4577
V\u9edd
sI4578
V\u9f10
sI4579
V\u9fa0
sI4580
V\u4e07
sI4581
V\u4e30
sI4582
V\u4e9b
sI4583
V\u4f19
sI4584
V\u4f7a
sI4585
V\u4f81
sI4586
V\u4fb7
sI4587
V\u4fc5
sI4588
V\u4fda
sI4589
V\u4ff3
sI4590
V\u4ffa
sI4591
V\u5007
sI4592
V\u500b
sI4593
V\u501e
sI4594
V\u505a
sI4595
V\u5096
sI4596
V\u509a
sI4597
V\u50af
sI4598
V\u50c2
sI4599
V\u50ce
sI4600
V\u50e5
sI4601
V\u5108
sI4602
V\u5118
sI4603
V\u5155
sI4604
V\u5156
sI4605
V\u51b2
sI4606
V\u51d1
sI4607
V\u51d6
sI4608
V\u520e
sI4609
V\u525e
sI4610
V\u5288
sI4611
V\u528a
sI4612
V\u52cd
sI4613
V\u52d4
sI4614
V\u52f1
sI4615
V\u5306
sI4616
V\u530f
sI4617
V\u5315
sI4618
V\u5375
sI4619
V\u5399
sI4620
V\u53c9
sI4621
V\u53ee
sI4622
V\u53f6
sI4623
V\u5415
sI4624
V\u5434
sI4625
V\u5435
sI4626
V\u5475
sI4627
V\u5486
sI4628
V\u54a2
sI4629
V\u54bb
sI4630
V\u54ce
sI4631
V\u54ff
sI4632
V\u5501
sI4633
V\u553e
sI4634
V\u5556
sI4635
V\u555e
sI4636
V\u5563
sI4637
V\u557e
sI4638
V\u5586
sI4639
V\u558b
sI4640
V\u5591
sI4641
V\u55ad
sI4642
V\u5616
sI4643
V\u5632
sI4644
V\u5639
sI4645
V\u563a
sI4646
V\u564c
sI4647
V\u5662
sI4648
V\u5664
sI4649
V\u566a
sI4650
V\u5699
sI4651
V\u56ea
sI4652
V\u5708
sI4653
V\u5729
sI4654
V\u572c
sI4655
V\u576f
sI4656
V\u5777
sI4657
V\u578d
sI4658
V\u57a1
sI4659
V\u57c2
sI4660
V\u57e4
sI4661
V\u57ed
sI4662
V\u57fd
sI4663
V\u580a
sI4664
V\u581d
sI4665
V\u5820
sI4666
V\u584d
sI4667
V\u5852
sI4668
V\u5892
sI4669
V\u58bc
sI4670
V\u58c5
sI4671
V\u58e9
sI4672
V\u5905
sI4673
V\u5924
sI4674
V\u5938
sI4675
V\u596d
sI4676
V\u597c
sI4677
V\u5981
sI4678
V\u59d8
sI4679
V\u5a03
sI4680
V\u5a2c
sI4681
V\u5a40
sI4682
V\u5ab5
sI4683
V\u5ad6
sI4684
V\u5adc
sI4685
V\u5ae9
sI4686
V\u5aea
sI4687
V\u5b08
sI4688
V\u5b10
sI4689
V\u5b16
sI4690
V\u5b53
sI4691
V\u5b5b
sI4692
V\u5b73
sI4693
V\u5b75
sI4694
V\u5bac
sI4695
V\u5bb7
sI4696
V\u5bd4
sI4697
V\u5be8
sI4698
V\u5c14
sI4699
V\u5c16
sI4700
V\u5c5c
sI4701
V\u5caf
sI4702
V\u5ccb
sI4703
V\u5cd8
sI4704
V\u5d0d
sI4705
V\u5d11
sI4706
V\u5d34
sI4707
V\u5d52
sI4708
V\u5d84
sI4709
V\u5de9
sI4710
V\u5e3d
sI4711
V\u5e40
sI4712
V\u5e6b
sI4713
V\u5ee0
sI4714
V\u5f07
sI4715
V\u5f0d
sI4716
V\u5f12
sI4717
V\u5f1c
sI4718
V\u5f58
sI4719
V\u5f89
sI4720
V\u5f9c
sI4721
V\u5fd6
sI4722
V\u5ff8
sI4723
V\u6024
sI4724
V\u602b
sI4725
V\u6041
sI4726
V\u60a8
sI4727
V\u60c7
sI4728
V\u6103
sI4729
V\u6110
sI4730
V\u612c
sI4731
V\u613f
sI4732
V\u6144
sI4733
V\u614a
sI4734
V\u6163
sI4735
V\u6165
sI4736
V\u6175
sI4737
V\u6194
sI4738
V\u6195
sI4739
V\u6197
sI4740
V\u61ae
sI4741
V\u61ca
sI4742
V\u61f0
sI4743
V\u61f6
sI4744
V\u6209
sI4745
V\u621b
sI4746
V\u6225
sI4747
V\u624e
sI4748
V\u6259
sI4749
V\u6273
sI4750
V\u6283
sI4751
V\u6293
sI4752
V\u62a8
sI4753
V\u62cb
sI4754
V\u62cf
sI4755
V\u62ee
sI4756
V\u6342
sI4757
V\u6343
sI4758
V\u6376
sI4759
V\u637b
sI4760
V\u6380
sI4761
V\u638a
sI4762
V\u63a3
sI4763
V\u63c9
sI4764
V\u6414
sI4765
V\u6417
sI4766
V\u6436
sI4767
V\u6490
sI4768
V\u649e
sI4769
V\u64ae
sI4770
V\u64d8
sI4771
V\u64e6
sI4772
V\u64f4
sI4773
V\u64fa
sI4774
V\u6514
sI4775
V\u6519
sI4776
V\u6524
sI4777
V\u652b
sI4778
V\u652e
sI4779
V\u6535
sI4780
V\u6573
sI4781
V\u65ce
sI4782
V\u661d
sI4783
V\u6648
sI4784
V\u6667
sI4785
V\u6685
sI4786
V\u6690
sI4787
V\u669f
sI4788
V\u66c5
sI4789
V\u66dd
sI4790
V\u6734
sI4791
V\u6748
sI4792
V\u6774
sI4793
V\u6777
sI4794
V\u6787
sI4795
V\u678b
sI4796
V\u67b5
sI4797
V\u67da
sI4798
V\u6818
sI4799
V\u6829
sI4800
V\u682f
sI4801
V\u6855
sI4802
V\u68b2
sI4803
V\u68b3
sI4804
V\u68c9
sI4805
V\u68d5
sI4806
V\u6966
sI4807
V\u6976
sI4808
V\u6994
sI4809
V\u69ca
sI4810
V\u69d3
sI4811
V\u69d4
sI4812
V\u69fd
sI4813
V\u6a3a
sI4814
V\u6a3e
sI4815
V\u6a48
sI4816
V\u6a81
sI4817
V\u6a89
sI4818
V\u6a97
sI4819
V\u6a9c
sI4820
V\u6aa0
sI4821
V\u6aa3
sI4822
V\u6ab3
sI4823
V\u6ae8
sI4824
V\u6c05
sI4825
V\u6c27
sI4826
V\u6c54
sI4827
V\u6c67
sI4828
V\u6c68
sI4829
V\u6c6d
sI4830
V\u6c6f
sI4831
V\u6cad
sI4832
V\u6cc2
sI4833
V\u6cc5
sI4834
V\u6d12
sI4835
V\u6d31
sI4836
V\u6d5e
sI4837
V\u6d80
sI4838
V\u6d8e
sI4839
V\u6dd6
sI4840
V\u6ddd
sI4841
V\u6de9
sI4842
V\u6df6
sI4843
V\u6e4e
sI4844
V\u6e4f
sI4845
V\u6e59
sI4846
V\u6e6b
sI4847
V\u6e8f
sI4848
V\u6eb4
sI4849
V\u6efe
sI4850
V\u6f13
sI4851
V\u6f1a
sI4852
V\u6f36
sI4853
V\u6f3c
sI4854
V\u6f53
sI4855
V\u6f8e
sI4856
V\u6fad
sI4857
V\u6fb1
sI4858
V\u6fc2
sI4859
V\u6fc9
sI4860
V\u7011
sI4861
V\u7020
sI4862
V\u7026
sI4863
V\u7039
sI4864
V\u7052
sI4865
V\u705d
sI4866
V\u7063
sI4867
V\u7064
sI4868
V\u710a
sI4869
V\u714a
sI4870
V\u715a
sI4871
V\u7174
sI4872
V\u71ac
sI4873
V\u7217
sI4874
V\u721d
sI4875
V\u723b
sI4876
V\u727e
sI4877
V\u7284
sI4878
V\u72f7
sI4879
V\u7316
sI4880
V\u739f
sI4881
V\u73b3
sI4882
V\u73bc
sI4883
V\u73dd
sI4884
V\u73de
sI4885
V\u73e4
sI4886
V\u7401
sI4887
V\u7409
sI4888
V\u742f
sI4889
V\u744a
sI4890
V\u7452
sI4891
V\u7458
sI4892
V\u745d
sI4893
V\u746b
sI4894
V\u746d
sI4895
V\u7490
sI4896
V\u74a6
sI4897
V\u74ac
sI4898
V\u74b4
sI4899
V\u74d4
sI4900
V\u74f7
sI4901
V\u7513
sI4902
V\u752c
sI4903
V\u753a
sI4904
V\u754b
sI4905
V\u7578
sI4906
V\u75a3
sI4907
V\u75d6
sI4908
V\u75d9
sI4909
V\u75e4
sI4910
V\u75fa
sI4911
V\u760d
sI4912
V\u7619
sI4913
V\u7652
sI4914
V\u766c
sI4915
V\u7696
sI4916
V\u76bf
sI4917
V\u76c5
sI4918
V\u76d6
sI4919
V\u76ea
sI4920
V\u76ef
sI4921
V\u7715
sI4922
V\u774f
sI4923
V\u775b
sI4924
V\u7761
sI4925
V\u776a
sI4926
V\u7780
sI4927
V\u779f
sI4928
V\u77ad
sI4929
V\u77b3
sI4930
V\u77cd
sI4931
V\u77f8
sI4932
V\u7809
sI4933
V\u78d4
sI4934
V\u78ef
sI4935
V\u7926
sI4936
V\u7946
sI4937
V\u7955
sI4938
V\u796b
sI4939
V\u79a7
sI4940
V\u79ed
sI4941
V\u7a40
sI4942
V\u7a4f
sI4943
V\u7a69
sI4944
V\u7aa8
sI4945
V\u7ae3
sI4946
V\u7b2a
sI4947
V\u7b31
sI4948
V\u7b47
sI4949
V\u7b8d
sI4950
V\u7b94
sI4951
V\u7b9c
sI4952
V\u7c07
sI4953
V\u7c0f
sI4954
V\u7c1e
sI4955
V\u7c38
sI4956
V\u7c43
sI4957
V\u7c9e
sI4958
V\u7cb3
sI4959
V\u7cd7
sI4960
V\u7cdd
sI4961
V\u7cef
sI4962
V\u7cf9
sI4963
V\u7d1e
sI4964
V\u7d40
sI4965
V\u7d7f
sI4966
V\u7dae
sI4967
V\u7daf
sI4968
V\u7dbe
sI4969
V\u7dda
sI4970
V\u7dde
sI4971
V\u7dfc
sI4972
V\u7e0a
sI4973
V\u7e2f
sI4974
V\u7e59
sI4975
V\u7e5f
sI4976
V\u7e9c
sI4977
V\u7f4c
sI4978
V\u7f58
sI4979
V\u7f5f
sI4980
V\u7f61
sI4981
V\u7f75
sI4982
V\u7f8b
sI4983
V\u7fa3
sI4984
V\u7fce
sI4985
V\u800d
sI4986
V\u807e
sI4987
V\u80a2
sI4988
V\u8101
sI4989
V\u8139
sI4990
V\u8165
sI4991
V\u81a9
sI4992
V\u81cf
sI4993
V\u8216
sI4994
V\u822b
sI4995
V\u8236
sI4996
V\u8237
sI4997
V\u8238
sI4998
V\u8258
sI4999
V\u8266
sI5000
V\u8268
sI5001
V\u8283
sI5002
V\u8284
sI5003
V\u828b
sI5004
V\u8291
sI5005
V\u82a9
sI5006
V\u82ad
sI5007
V\u82d3
sI5008
V\u82dc
sI5009
V\u8301
sI5010
V\u8306
sI5011
V\u8307
sI5012
V\u8309
sI5013
V\u8331
sI5014
V\u8356
sI5015
V\u837b
sI5016
V\u8386
sI5017
V\u83a0
sI5018
V\u83c7
sI5019
V\u83d6
sI5020
V\u83d8
sI5021
V\u83f9
sI5022
V\u8461
sI5023
V\u84a1
sI5024
V\u84a8
sI5025
V\u84b9
sI5026
V\u8517
sI5027
V\u8526
sI5028
V\u852b
sI5029
V\u8549
sI5030
V\u8551
sI5031
V\u855e
sI5032
V\u857a
sI5033
V\u8622
sI5034
V\u863c
sI5035
V\u866b
sI5036
V\u8671
sI5037
V\u868a
sI5038
V\u8693
sI5039
V\u86a3
sI5040
V\u86a8
sI5041
V\u86af
sI5042
V\u86c4
sI5043
V\u86d1
sI5044
V\u86e9
sI5045
V\u86f8
sI5046
V\u86fa
sI5047
V\u8709
sI5048
V\u8712
sI5049
V\u8713
sI5050
V\u871a
sI5051
V\u8737
sI5052
V\u873f
sI5053
V\u8764
sI5054
V\u8766
sI5055
V\u8793
sI5056
V\u8797
sI5057
V\u87ab
sI5058
V\u8803
sI5059
V\u881f
sI5060
V\u886b
sI5061
V\u886e
sI5062
V\u88e6
sI5063
V\u8927
sI5064
V\u893b
sI5065
V\u895e
sI5066
V\u89f6
sI5067
V\u8a46
sI5068
V\u8a5b
sI5069
V\u8a6c
sI5070
V\u8ab9
sI5071
V\u8af2
sI5072
V\u8af4
sI5073
V\u8b1c
sI5074
V\u8b26
sI5075
V\u8b29
sI5076
V\u8c5a
sI5077
V\u8cc5
sI5078
V\u8cec
sI5079
V\u8d10
sI5080
V\u8d13
sI5081
V\u8d1b
sI5082
V\u8d67
sI5083
V\u8d81
sI5084
V\u8ddf
sI5085
V\u8deb
sI5086
V\u8dfd
sI5087
V\u8e05
sI5088
V\u8e14
sI5089
V\u8e1f
sI5090
V\u8e6d
sI5091
V\u8e74
sI5092
V\u8e90
sI5093
V\u8e9e
sI5094
V\u8eb2
sI5095
V\u8ef9
sI5096
V\u8f0a
sI5097
V\u8f1b
sI5098
V\u8f3e
sI5099
V\u8f4e
sI5100
V\u8fae
sI5101
V\u9004
sI5102
V\u9008
sI5103
V\u901b
sI5104
V\u90b6
sI5105
V\u90bd
sI5106
V\u90c3
sI5107
V\u90c4
sI5108
V\u9111
sI5109
V\u9114
sI5110
V\u913a
sI5111
V\u9147
sI5112
V\u917a
sI5113
V\u918d
sI5114
V\u91a2
sI5115
V\u91ac
sI5116
V\u91af
sI5117
V\u91b5
sI5118
V\u91d3
sI5119
V\u9204
sI5120
V\u9214
sI5121
V\u9239
sI5122
V\u923d
sI5123
V\u9240
sI5124
V\u925f
sI5125
V\u9265
sI5126
V\u9277
sI5127
V\u929a
sI5128
V\u92c1
sI5129
V\u92cf
sI5130
V\u92fc
sI5131
V\u9336
sI5132
V\u9360
sI5133
V\u9364
sI5134
V\u93aa
sI5135
V\u93c3
sI5136
V\u93e8
sI5137
V\u9408
sI5138
V\u9419
sI5139
V\u942e
sI5140
V\u9432
sI5141
V\u9472
sI5142
V\u953a
sI5143
V\u9582
sI5144
V\u9598
sI5145
V\u95cd
sI5146
V\u963c
sI5147
V\u965e
sI5148
V\u972a
sI5149
V\u9774
sI5150
V\u9798
sI5151
V\u97c1
sI5152
V\u9826
sI5153
V\u982b
sI5154
V\u9846
sI5155
V\u986b
sI5156
V\u9870
sI5157
V\u9874
sI5158
V\u98b1
sI5159
V\u98b6
sI5160
V\u98e2
sI5161
V\u98fc
sI5162
V\u9905
sI5163
V\u9909
sI5164
V\u9913
sI5165
V\u99b1
sI5166
V\u99c9
sI5167
V\u99dd
sI5168
V\u99f0
sI5169
V\u9a05
sI5170
V\u9a19
sI5171
V\u9a40
sI5172
V\u9aaf
sI5173
V\u9ac0
sI5174
V\u9b1f
sI5175
V\u9b32
sI5176
V\u9baa
sI5177
V\u9bc0
sI5178
V\u9beb
sI5179
V\u9c13
sI5180
V\u9c78
sI5181
V\u9d30
sI5182
V\u9d3f
sI5183
V\u9d51
sI5184
V\u9d61
sI5185
V\u9dd7
sI5186
V\u9dda
sI5187
V\u9de5
sI5188
V\u9e82
sI5189
V\u9eb9
sI5190
V\u9ee5
sI5191
V\u9ef2
sI5192
V\u9f19
sI5193
V\u9f4f
sI5194
V\u9f5f
sI5195
V\u9f6a
sI5196
V\u9f6c
sI5197
V\u4e0c
sI5198
V\u4e2b
sI5199
V\u4e32
sI5200
V\u4e52
sI5201
V\u4e93
sI5202
V\u4ebb
sI5203
V\u4ec3
sI5204
V\u4edd
sI5205
V\u4ee1
sI5206
V\u4f15
sI5207
V\u4f37
sI5208
V\u4f57
sI5209
V\u4f60
sI5210
V\u4f7b
sI5211
V\u4f7c
sI5212
V\u4fc2
sI5213
V\u4fec
sI5214
V\u5000
sI5215
V\u5014
sI5216
V\u5015
sI5217
V\u5027
sI5218
V\u5053
sI5219
V\u5058
sI5220
V\u506d
sI5221
V\u50a2
sI5222
V\u50aa
sI5223
V\u5101
sI5224
V\u5121
sI5225
V\u518f
sI5226
V\u51bc
sI5227
V\u51e0
sI5228
V\u5282
sI5229
V\u52aa
sI5230
V\u52bc
sI5231
V\u53e6
sI5232
V\u5403
sI5233
V\u5427
sI5234
V\u5464
sI5235
V\u5476
sI5236
V\u5490
sI5237
V\u54a7
sI5238
V\u54c7
sI5239
V\u54e6
sI5240
V\u5506
sI5241
V\u5527
sI5242
V\u5555
sI5243
V\u5582
sI5244
V\u5583
sI5245
V\u558a
sI5246
V\u559a
sI5247
V\u55cc
sI5248
V\u5608
sI5249
V\u5614
sI5250
V\u5635
sI5251
V\u56a5
sI5252
V\u576a
sI5253
V\u578b
sI5254
V\u57a4
sI5255
V\u57dd
sI5256
V\u57f8
sI5257
V\u582e
sI5258
V\u584c
sI5259
V\u5881
sI5260
V\u594e
sI5261
V\u598a
sI5262
V\u5a84
sI5263
V\u5af5
sI5264
V\u5b07
sI5265
V\u5b7f
sI5266
V\u5b80
sI5267
V\u5c50
sI5268
V\u5ca2
sI5269
V\u5d10
sI5270
V\u5d19
sI5271
V\u5d1e
sI5272
V\u5d1f
sI5273
V\u5d31
sI5274
V\u5d3f
sI5275
V\u5d4c
sI5276
V\u5db2
sI5277
V\u5dcc
sI5278
V\u5e75
sI5279
V\u5eb5
sI5280
V\u5fea
sI5281
V\u6014
sI5282
V\u6018
sI5283
V\u6026
sI5284
V\u607f
sI5285
V\u60c6
sI5286
V\u60ce
sI5287
V\u613b
sI5288
V\u6146
sI5289
V\u615c
sI5290
V\u61a8
sI5291
V\u61bc
sI5292
V\u61e8
sI5293
V\u6214
sI5294
V\u6223
sI5295
V\u624c
sI5296
V\u626e
sI5297
V\u62b9
sI5298
V\u62bb
sI5299
V\u62cd
sI5300
V\u62da
sI5301
V\u62f7
sI5302
V\u638f
sI5303
V\u645f
sI5304
V\u647a
sI5305
V\u647b
sI5306
V\u64c0
sI5307
V\u64c4
sI5308
V\u64f7
sI5309
V\u650f
sI5310
V\u6523
sI5311
V\u658b
sI5312
V\u659d
sI5313
V\u6645
sI5314
V\u664c
sI5315
V\u6698
sI5316
V\u66be
sI5317
V\u66d4
sI5318
V\u6726
sI5319
V\u674c
sI5320
V\u6798
sI5321
V\u67b7
sI5322
V\u67b8
sI5323
V\u67f7
sI5324
V\u6846
sI5325
V\u6849
sI5326
V\u68cd
sI5327
V\u68e8
sI5328
V\u68f5
sI5329
V\u68fb
sI5330
V\u6939
sI5331
V\u6953
sI5332
V\u6957
sI5333
V\u6971
sI5334
V\u69b4
sI5335
V\u69c1
sI5336
V\u6a61
sI5337
V\u6a94
sI5338
V\u6ac3
sI5339
V\u6aea
sI5340
V\u6bef
sI5341
V\u6c2f
sI5342
V\u6c41
sI5343
V\u6c4e
sI5344
V\u6c50
sI5345
V\u6c5b
sI5346
V\u6c5e
sI5347
V\u6c7d
sI5348
V\u6c87
sI5349
V\u6cd3
sI5350
V\u6d1a
sI5351
V\u6d36
sI5352
V\u6d3f
sI5353
V\u6dcb
sI5354
V\u6e53
sI5355
V\u6e5e
sI5356
V\u6e76
sI5357
V\u6eb2
sI5358
V\u6eb7
sI5359
V\u6ef2
sI5360
V\u6f09
sI5361
V\u6f68
sI5362
V\u6fa3
sI5363
V\u6fd8
sI5364
V\u6fde
sI5365
V\u7027
sI5366
V\u708a
sI5367
V\u70ae
sI5368
V\u71a8
sI5369
V\u71d4
sI5370
V\u71e5
sI5371
V\u71ec
sI5372
V\u7292
sI5373
V\u72c3
sI5374
V\u7329
sI5375
V\u7331
sI5376
V\u7334
sI5377
V\u7357
sI5378
V\u736c
sI5379
V\u7395
sI5380
V\u7397
sI5381
V\u7398
sI5382
V\u73a0
sI5383
V\u73aa
sI5384
V\u73e6
sI5385
V\u73e7
sI5386
V\u7421
sI5387
V\u7435
sI5388
V\u7436
sI5389
V\u743a
sI5390
V\u7440
sI5391
V\u7441
sI5392
V\u7471
sI5393
V\u7474
sI5394
V\u7483
sI5395
V\u7499
sI5396
V\u74a5
sI5397
V\u74ab
sI5398
V\u74db
sI5399
V\u756c
sI5400
V\u75a5
sI5401
V\u75b0
sI5402
V\u75bc
sI5403
V\u7643
sI5404
V\u7690
sI5405
V\u7699
sI5406
V\u772d
sI5407
V\u7736
sI5408
V\u775e
sI5409
V\u779e
sI5410
V\u77a5
sI5411
V\u7827
sI5412
V\u7843
sI5413
V\u784e
sI5414
V\u78be
sI5415
V\u78cb
sI5416
V\u78e3
sI5417
V\u798a
sI5418
V\u79f8
sI5419
V\u7a02
sI5420
V\u7a03
sI5421
V\u7a4c
sI5422
V\u7ab3
sI5423
V\u7abf
sI5424
V\u7b1e
sI5425
V\u7b90
sI5426
V\u7be0
sI5427
V\u7be9
sI5428
V\u7bf7
sI5429
V\u7bf9
sI5430
V\u7bfe
sI5431
V\u7c0d
sI5432
V\u7c26
sI5433
V\u7cc8
sI5434
V\u7cf6
sI5435
V\u7cfa
sI5436
V\u7d03
sI5437
V\u7d18
sI5438
V\u7d5b
sI5439
V\u7e0b
sI5440
V\u7e1a
sI5441
V\u7e70
sI5442
V\u7e88
sI5443
V\u801c
sI5444
V\u8037
sI5445
V\u8075
sI5446
V\u80ab
sI5447
V\u80c2
sI5448
V\u80fc
sI5449
V\u811b
sI5450
V\u8180
sI5451
V\u81e0
sI5452
V\u81ef
sI5453
V\u8298
sI5454
V\u82a1
sI5455
V\u82b9
sI5456
V\u82be
sI5457
V\u82d8
sI5458
V\u82e3
sI5459
V\u831d
sI5460
V\u832c
sI5461
V\u833a
sI5462
V\u8393
sI5463
V\u83a7
sI5464
V\u83f0
sI5465
V\u8438
sI5466
V\u8494
sI5467
V\u84c6
sI5468
V\u84d3
sI5469
V\u84e8
sI5470
V\u851f
sI5471
V\u8555
sI5472
V\u8561
sI5473
V\u8568
sI5474
V\u858f
sI5475
V\u8638
sI5476
V\u868b
sI5477
V\u868d
sI5478
V\u86c9
sI5479
V\u86d9
sI5480
V\u86db
sI5481
V\u86ed
sI5482
V\u872e
sI5483
V\u8778
sI5484
V\u8788
sI5485
V\u87ac
sI5486
V\u87af
sI5487
V\u87c0
sI5488
V\u87c4
sI5489
V\u87cb
sI5490
V\u8815
sI5491
V\u8823
sI5492
V\u8837
sI5493
V\u8846
sI5494
V\u884e
sI5495
V\u88fc
sI5496
V\u8964
sI5497
V\u89b7
sI5498
V\u89dc
sI5499
V\u8a07
sI5500
V\u8a15
sI5501
V\u8a48
sI5502
V\u8a65
sI5503
V\u8a67
sI5504
V\u8a7c
sI5505
V\u8a7f
sI5506
V\u8a97
sI5507
V\u8add
sI5508
V\u8b3e
sI5509
V\u8c6c
sI5510
V\u8c89
sI5511
V\u8cad
sI5512
V\u8cb0
sI5513
V\u8cbc
sI5514
V\u8ce1
sI5515
V\u8cfa
sI5516
V\u8cfd
sI5517
V\u8dc6
sI5518
V\u8dfa
sI5519
V\u8e22
sI5520
V\u8e4b
sI5521
V\u8e89
sI5522
V\u8f13
sI5523
V\u8fbf
sI5524
V\u8fee
sI5525
V\u9037
sI5526
V\u9074
sI5527
V\u90b4
sI5528
V\u90c5
sI5529
V\u9120
sI5530
V\u9139
sI5531
V\u9143
sI5532
V\u9164
sI5533
V\u916e
sI5534
V\u9190
sI5535
V\u91c0
sI5536
V\u91ec
sI5537
V\u91f4
sI5538
V\u9209
sI5539
V\u920e
sI5540
V\u9262
sI5541
V\u927b
sI5542
V\u929b
sI5543
V\u92bc
sI5544
V\u92cc
sI5545
V\u92d7
sI5546
V\u92dd
sI5547
V\u931a
sI5548
V\u935b
sI5549
V\u9394
sI5550
V\u93e2
sI5551
V\u9410
sI5552
V\u9429
sI5553
V\u944a
sI5554
V\u9491
sI5555
V\u95a1
sI5556
V\u95b4
sI5557
V\u95c7
sI5558
V\u95d6
sI5559
V\u9622
sI5560
V\u9631
sI5561
V\u9674
sI5562
V\u9689
sI5563
V\u96c7
sI5564
V\u978b
sI5565
V\u97a6
sI5566
V\u97c6
sI5567
V\u9820
sI5568
V\u98e9
sI5569
V\u9917
sI5570
V\u9955
sI5571
V\u995c
sI5572
V\u9a41
sI5573
V\u9b2f
sI5574
V\u9b45
sI5575
V\u9b4d
sI5576
V\u9b51
sI5577
V\u9bd6
sI5578
V\u9be1
sI5579
V\u9c52
sI5580
V\u9d06
sI5581
V\u9d07
sI5582
V\u9d1d
sI5583
V\u9d52
sI5584
V\u9d5c
sI5585
V\u9dbc
sI5586
V\u9e7c
sI5587
V\u9e87
sI5588
V\u9edf
sI5589
V\u9ee7
sI5590
V\u9f2f
sI5591
V\u9f34
sI5592
V\u9f47
sI5593
V\u9f72
sI5594
V\u9f77
ss.